################################################################################
#                                                                              #
#      IAR Universal Linker V6.0.3.49                                          #
#                                                                              #
#           Link time     =  08/Jan/2020  15:34:28                             #
#           Target CPU    =  RL78                                              #
#           List file     =  vcast.map                                         #
#           Output file 1 =  C:\Users\zhu1\Downloads\SW_Need_Change_Managemant #
#                            \GEEA2.0\E4-2_SW\RLS_SYS_RLS_GP_RLXS_GEN5_DEV_APL #
#                            _GEELY2.0_RLFS_FOR_E4_03\05_SwDev\01_SrcCode\Appl #
#                            ication\CustomerInterface\ModuleTest\1234\UUT_INS #
#                            T.d87                                             #
#                            Format: debug                                     #
#                            UBROF version 10.0.6                              #
#                            Using library modules for C-SPY (-rt)             #
#           Command line  =  -l vcast.map -xsmn -o UUT_INST.d87 B0000001.r87   #
#                            B0000002.r87 S0000003.r87 B0000008.r87            #
#                            B0000004.r87 B0000007.r87 vcast_stdin_data.r87    #
#                            B1_switch.r87 B4_switch.r87 S3_switch.r87         #
#                            I0000009.r87                                      #
#                            "-IC:\Program Files (x86)\IAR Systems\Embedded Wo #
#                            rkbench 7.0\rl78\LIB"                             #
#                            -f lnkr5f10pgj.xcl (-cRL78                        #
#                            -Z(CODE)INTVEC=00000-0007F                        #
#                            -Z(CODE)CLTVEC=00080-000BF                        #
#                            -Z(CODE)OPTBYTE=000C0-000C3                       #
#                            -Z(CODE)SECUID=000C4-000CD --segment_mirror       #
#                            @NEAR_CONST=NEAR_CONST_ID                         #
#                            -Z(CONST)NEAR_CONST_ID=_NEAR_CONST_LOCATION_START #
#                            -_NEAR_CONST_LOCATION_END                         #
#                            -Z(DATA)NEAR_CONST=(_NEAR_CONST_LOCATION_START|F0 #
#                            000)-(_NEAR_CONST_LOCATION_END|F0000)             #
#                            -Z(CODE)RCODE,CODE=000D8-0FFFF                    #
#                            -Z(CONST)SWITCH=000D8-0FDFF                       #
#                            -Z(CONST)NEAR_ID=[000D8-0FDFF]/10000              #
#                            -Z(CONST)SADDR_ID=[000D8-0FDFF]/10000             #
#                            -Z(CONST)DIFUNCT=[000D8-0FDFF]/10000              #
#                            -Z(CONST)HUGE_ID=0AF00-3FDFF                      #
#                            -Z(DATA)HUGE_I=FAF00-FFE1F                        #
#                            -Z(CONST)FAR_ID=[0AF00-3FDFF]/10000               #
#                            -Z(DATA)FAR_I=[FAF00-FFE1F]/10000                 #
#                            -P(CONST)HUGE_CONST=000D8-3FDFF                   #
#                            -P(CONST)FAR_CONST,END_BOOTSEG_TWO,BOOTSEG_TWO,FS #
#                            WITCH=[000D8-3FDFF]/10000                         #
#                            -P(CODE)XCODE=[000D8-3FDFF]/10000                 #
#                            -Z(CONST)EEPROM=F1000-F2FFF                       #
#                            -Z(DATA)WRKSEG=FFE20-FFEDF                        #
#                            -Z(DATA)SADDR_I,SADDR_Z,SADDR_N=FFE20-FFEDF       #
#                            -Z(DATA)NEAR_I,NEAR_Z,NEAR_N=FAF00-FFE1F          #
#                            -Z(DATA)HUGE_Z=FAF00-FFE1F                        #
#                            -P(DATA)HUGE_N=FAF00-FFE1F                        #
#                            -Z(DATA)FAR_Z=[FAF00-FFE1F]/10000                 #
#                            -P(DATA)FAR_N=[FAF00-FFE1F]/10000                 #
#                            -Z(DATA)NEAR_HEAP+_NEAR_HEAP_SIZE=FAF00-FFE1F     #
#                            -Z(DATA)FAR_HEAP+_FAR_HEAP_SIZE=[FAF00-FFE1F]/100 #
#                            00                                                #
#                            -Z(DATA)RAM_GUARD=FAF00-FFE1F                     #
#                            -Z(DATA)CSTACK+_CSTACK_SIZE=FAF00-FFE1F) -Hff     #
#                            -rt -s __program_start -D_NEAR_CONST_LOCATION=0   #
#                            -D_NEAR_CONST_LOCATION_START=3000                 #
#                            -D_NEAR_CONST_LOCATION_END=AEFF                   #
#                            "C:\Program Files (x86)\IAR Systems\Embedded Work #
#                            bench 7.0\rl78\LIB\dlrl78fn2n.r87"                #
#                            -e_PrintfSmall=_Printf -e_ScanfSmall=_Scanf       #
#                            -D_CSTACK_SIZE=400 -D_NEAR_HEAP_SIZE=400          #
#                            -D_HUGE_HEAP_SIZE=200 -D_FAR_HEAP_SIZE=200        #
#                                                                              #
#                           Copyright (C) 1987-2014 IAR Systems AB.            #
################################################################################





                ****************************************
                *                                      *
                *           CROSS REFERENCE            *
                *                                      *
                ****************************************

       Program entry at :           000000DE  Relocatable, from module : ?CSTARTUP




                ****************************************
                *                                      *
                *            RUNTIME MODEL             *
                *                                      *
                ****************************************

  __Heap_Handler             = Basic
  __SystemLibrary            = DLib
  __code_model               = far
  __core                     = rl78_2
  __data_model               = near
  __dlib_file_descriptor     = 0
  __dlib_full_locale_support = 0
  __far_rt_calls             = false
  __rt_version               = 1

                ****************************************
                *                                      *
                *    AUTOMATIC SYMBOL REDIRECTIONS     *
                *                                      *
                ****************************************

                  There are no automatic symbol redirections.



                ****************************************
                *                                      *
                *              MODULE MAP              *
                *                                      *
                ****************************************


  DEFINED ABSOLUTE ENTRIES
  PROGRAM MODULE, NAME : ?ABS_ENTRY_MOD

Absolute parts
           ENTRY                   ADDRESS         REF BY
           =====                   =======         ======
           _FAR_HEAP_SIZE          00000200 
           _HUGE_HEAP_SIZE         00000200 
           _NEAR_HEAP_SIZE         00000400 
           _CSTACK_SIZE            00000400 
           _NEAR_CONST_LOCATION_END
                                   0000AEFF 
           _NEAR_CONST_LOCATION_START
                                   00003000 
           _NEAR_CONST_LOCATION    00000000        Segment part 4 (?CSTARTUP)
    *************************************************************************

  FILE NAME : C:\Users\zhu1\Downloads\SW_Need_Change_Managemant\GEEA2.0\E4-2_SW\RLS_SYS_RLS_GP_RLXS_GEN5_DEV_APL_GEELY2.0_RLFS_FOR_E4_03\05_SwDev\01_SrcCode\Application\CustomerInterface\ModuleTest\1234\B0000001.r87
  PROGRAM MODULE, NAME : B0000001

  SEGMENTS IN THE MODULE
  ======================
NEAR_Z
  Relative segment, address: 000FAF76 - 000FAFB5 (0x40 bytes), align: 1
  Segment part 20.            Intra module refs:   VCAST_FIND_INDEX
                                                   VCAST_TI_STRING
                                                   vCAST_RUN_DATA_IF
                                                   vcast_get_param_value_with_index
                                                   vcast_get_range_value
                                                   vcast_proc_handles_command
           ENTRY                   ADDRESS         REF BY
           =====                   =======         ======
           vCAST_PARAMETER         000FAF76 
    -------------------------------------------------------------------------
NEAR_Z
  Relative segment, address: 000FAFB6 - 000FAFF5 (0x40 bytes), align: 1
  Segment part 21.            Intra module refs:   vCAST_RUN_DATA_IF
           ENTRY                   ADDRESS         REF BY
           =====                   =======         ======
           vCAST_PARAMETER_KEY     000FAFB6 
    -------------------------------------------------------------------------
NEAR_Z
  Relative segment, address: 000FAFF6 - 000FAFF9 (0x4 bytes), align: 1
  Segment part 22.            Intra module refs:   vCAST_RUN_DATA_IF
                                                   vcastInitializeB1Data
           ENTRY                   ADDRESS         REF BY
           =====                   =======         ======
           vCAST_VALUE_INT         000FAFF6        VCAST_TI_8_1 (B0000008)
                                                   VCAST_TI_8_2 (B0000008)
                                                   VCAST_TI_9_6 (I0000009)
    -------------------------------------------------------------------------
NEAR_Z
  Relative segment, address: 000FAFFA - 000FAFFD (0x4 bytes), align: 1
  Segment part 23.            Intra module refs:   VCAST_TI_BITFIELD
                                                   vCAST_RUN_DATA_IF
                                                   vcastInitializeB1Data
           ENTRY                   ADDRESS         REF BY
           =====                   =======         ======
           vCAST_VALUE_UNSIGNED    000FAFFA        VCAST_TI_9_22 (I0000009)
                                                   VCAST_TI_9_39 (I0000009)
    -------------------------------------------------------------------------
NEAR_Z
  Relative segment, address: 000FAFFE - 000FB001 (0x4 bytes), align: 1
  Segment part 24.            Intra module refs:   VCAST_TI_BITFIELD
                                                   vCAST_RUN_DATA_IF
                                                   vcastInitializeB1Data
           ENTRY                   ADDRESS         REF BY
           =====                   =======         ======
           vCAST_VALUE             000FAFFE        VCAST_TI_8_3 (B0000008)
                                                   VCAST_TI_9_53 (I0000009)
                                                   vcast_B1_switch (B1_switch)
    -------------------------------------------------------------------------
NEAR_Z
  Relative segment, address: 000FB002 - 000FB003 (0x2 bytes), align: 1
  Segment part 25.            Intra module refs:   vCAST_RUN_DATA_IF
           ENTRY                   ADDRESS         REF BY
           =====                   =======         ======
           vCAST_FILE              000FB002 
    -------------------------------------------------------------------------
NEAR_Z
  Relative segment, address: 000FB004 - 000FB005 (0x2 bytes), align: 1
  Segment part 26.            Intra module refs:   VCAST_FIND_INDEX
                                                   vCAST_RUN_DATA_IF
                                                   vcast_proc_handles_command
           ENTRY                   ADDRESS         REF BY
           =====                   =======         ======
           vCAST_PARAM_LENGTH      000FB004 
    -------------------------------------------------------------------------
NEAR_Z
  Relative segment, address: 000FB006 - 000FB007 (0x2 bytes), align: 1
  Segment part 27.            Intra module refs:   VCAST_TI_STRING
                                                   vCAST_RUN_DATA_IF
                                                   vcastInitializeB1Data
           ENTRY                   ADDRESS         REF BY
           =====                   =======         ======
           vCAST_INDEX             000FB006 
    -------------------------------------------------------------------------
NEAR_I
  Relative segment, address: 000FAF00 - 000FAF01 (0x2 bytes), align: 1
  Segment part 28.            Intra module refs:   VCAST_FIND_INDEX
                                                   vCAST_RUN_DATA_IF
                                                   vcastInitializeB1Data
                                                   vcast_get_param
                                                   vcast_get_range_value
                                                   vcast_proc_handles_command
           ENTRY                   ADDRESS         REF BY
           =====                   =======         ======
           vCAST_DATA_FIELD        000FAF00        VCAST_TI_8_4 (B0000008)
                                                   VCAST_TI_8_5 (B0000008)
                                                   VCAST_TI_9_111 (I0000009)
                                                   VCAST_TI_9_31 (I0000009)
                                                   VCAST_TI_9_37 (I0000009)
                                                   VCAST_TI_9_41 (I0000009)
                                                   VCAST_TI_9_43 (I0000009)
                                                   VCAST_TI_9_45 (I0000009)
                                                   VCAST_TI_9_49 (I0000009)
                                                   VCAST_TI_9_50 (I0000009)
                                                   VCAST_TI_9_54 (I0000009)
                                                   VCAST_TI_9_63 (I0000009)
                                                   VCAST_TI_9_64 (I0000009)
                                                   VCAST_TI_9_65 (I0000009)
                                                   VCAST_TI_9_68 (I0000009)
                                                   VCAST_TI_9_72 (I0000009)
                                                   VCAST_TI_9_74 (I0000009)
                                                   VCAST_TI_9_77 (I0000009)
                                                   VCAST_TI_9_79 (I0000009)
                                                   VCAST_TI_9_8 (I0000009)
                                                   VCAST_TI_9_80 (I0000009)
                                                   VCAST_TI_9_81 (I0000009)
    -------------------------------------------------------------------------
NEAR_Z
  Relative segment, address: 000FB666 - 000FB666 (0x1 bytes), align: 0
  Segment part 30.            Intra module refs:   VCAST_TI_BITFIELD
                                                   VCAST_TI_STRING
                                                   vCAST_RUN_DATA_IF
           ENTRY                   ADDRESS         REF BY
           =====                   =======         ======
           vCAST_COMMAND           000FB666        VCAST_TI_8_1 (B0000008)
                                                   VCAST_TI_8_2 (B0000008)
                                                   VCAST_TI_8_3 (B0000008)
                                                   VCAST_TI_8_4 (B0000008)
                                                   VCAST_TI_8_5 (B0000008)
                                                   VCAST_TI_9_1 (I0000009)
                                                   VCAST_TI_9_10 (I0000009)
                                                   VCAST_TI_9_111 (I0000009)
                                                   VCAST_TI_9_12 (I0000009)
                                                   VCAST_TI_9_14 (I0000009)
                                                   VCAST_TI_9_16 (I0000009)
                                                   VCAST_TI_9_18 (I0000009)
                                                   VCAST_TI_9_20 (I0000009)
                                                   VCAST_TI_9_22 (I0000009)
                                                   VCAST_TI_9_23 (I0000009)
                                                   VCAST_TI_9_24 (I0000009)
                                                   VCAST_TI_9_26 (I0000009)
                                                   VCAST_TI_9_28 (I0000009)
                                                   VCAST_TI_9_30 (I0000009)
                                                   VCAST_TI_9_31 (I0000009)
                                                   VCAST_TI_9_33 (I0000009)
                                                   VCAST_TI_9_35 (I0000009)
                                                   VCAST_TI_9_37 (I0000009)
                                                   VCAST_TI_9_39 (I0000009)
                                                   VCAST_TI_9_4 (I0000009)
                                                   VCAST_TI_9_40 (I0000009)
                                                   VCAST_TI_9_41 (I0000009)
                                                   VCAST_TI_9_42 (I0000009)
                                                   VCAST_TI_9_43 (I0000009)
                                                   VCAST_TI_9_44 (I0000009)
                                                   VCAST_TI_9_45 (I0000009)
                                                   VCAST_TI_9_49 (I0000009)
                                                   VCAST_TI_9_50 (I0000009)
                                                   VCAST_TI_9_53 (I0000009)
                                                   VCAST_TI_9_54 (I0000009)
                                                   VCAST_TI_9_6 (I0000009)
                                                   VCAST_TI_9_63 (I0000009)
                                                   VCAST_TI_9_64 (I0000009)
                                                   VCAST_TI_9_65 (I0000009)
                                                   VCAST_TI_9_68 (I0000009)
                                                   VCAST_TI_9_7 (I0000009)
                                                   VCAST_TI_9_72 (I0000009)
                                                   VCAST_TI_9_74 (I0000009)
                                                   VCAST_TI_9_77 (I0000009)
                                                   VCAST_TI_9_79 (I0000009)
                                                   VCAST_TI_9_8 (I0000009)
                                                   VCAST_TI_9_80 (I0000009)
                                                   VCAST_TI_9_81 (I0000009)
    -------------------------------------------------------------------------
NEAR_Z
  Relative segment, address: 000FB667 - 000FB667 (0x1 bytes), align: 0
  Segment part 31.            Intra module refs:   vCAST_RUN_DATA_IF
                                                   vcastInitializeB1Data
           ENTRY                   ADDRESS         REF BY
           =====                   =======         ======
           vCAST_VALUE_NUL         000FB667        VCAST_TI_9_53 (I0000009)
    -------------------------------------------------------------------------
NEAR_Z
  Relative segment, address: 000FB668 - 000FB668 (0x1 bytes), align: 0
  Segment part 32.            Intra module refs:   VCAST_TI_STRING
                                                   vCAST_RUN_DATA_IF
                                                   vcastInitializeB1Data
                                                   vcast_get_range_value
           ENTRY                   ADDRESS         REF BY
           =====                   =======         ======
           vCAST_SIZE              000FB668        VCAST_TI_8_4 (B0000008)
                                                   VCAST_TI_8_5 (B0000008)
                                                   VCAST_TI_9_111 (I0000009)
                                                   VCAST_TI_9_31 (I0000009)
                                                   VCAST_TI_9_37 (I0000009)
                                                   VCAST_TI_9_41 (I0000009)
                                                   VCAST_TI_9_43 (I0000009)
                                                   VCAST_TI_9_45 (I0000009)
                                                   VCAST_TI_9_49 (I0000009)
                                                   VCAST_TI_9_50 (I0000009)
                                                   VCAST_TI_9_54 (I0000009)
                                                   VCAST_TI_9_63 (I0000009)
                                                   VCAST_TI_9_64 (I0000009)
                                                   VCAST_TI_9_65 (I0000009)
                                                   VCAST_TI_9_68 (I0000009)
                                                   VCAST_TI_9_72 (I0000009)
                                                   VCAST_TI_9_74 (I0000009)
                                                   VCAST_TI_9_77 (I0000009)
                                                   VCAST_TI_9_79 (I0000009)
                                                   VCAST_TI_9_8 (I0000009)
                                                   VCAST_TI_9_80 (I0000009)
                                                   VCAST_TI_9_81 (I0000009)
    -------------------------------------------------------------------------
NEAR_I
  Relative segment, address: 000FAF72 - 000FAF72 (0x1 bytes), align: 0
  Segment part 33.            Intra module refs:   vcastInitializeB1Data
           ENTRY                   ADDRESS         REF BY
           =====                   =======         ======
           vCAST_can_print_constructor
                                   000FAF72 
    -------------------------------------------------------------------------
NEAR_Z
  Relative segment, address: 000FB008 - 000FB009 (0x2 bytes), align: 1
  Segment part 35.            Intra module refs:   vcastInitializeB1Data
           ENTRY                   ADDRESS         REF BY
           =====                   =======         ======
           VCAST_index_size        000FB008 
    -------------------------------------------------------------------------
NEAR_Z
  Relative segment, address: 000FB00A - 000FB00B (0x2 bytes), align: 1
  Segment part 36.            Intra module refs:   vcastInitializeB1Data
           LOCAL                   ADDRESS         
           =====                   =======         
           vcast_global_size       000FB00A 
    -------------------------------------------------------------------------
<XCODE> 1 (was XCODE)
  Relative segment, address: 00001196 - 000011D1 (0x3c bytes), align: 0
  Segment part 41.
           ENTRY                   ADDRESS         REF BY
           =====                   =======         ======
           vcast_proc_handles_command
                                   00001196        VCAST_TI_9_53 (I0000009)
               CSTACK = 00000000 ( 00000006 )
    -------------------------------------------------------------------------
<XCODE> 1 (was XCODE)
  Relative segment, address: 000011D2 - 0000122E (0x5d bytes), align: 0
  Segment part 44.            Intra module refs:   VCAST_TI_STRING
                                                   vcast_get_param_value_with_index
                                                   vcast_get_range_value
           ENTRY                   ADDRESS         REF BY
           =====                   =======         ======
           VCAST_FIND_INDEX        000011D2        VCAST_TI_8_4 (B0000008)
                                                   VCAST_TI_9_111 (I0000009)
                                                   VCAST_TI_9_41 (I0000009)
                                                   VCAST_TI_9_43 (I0000009)
                                                   VCAST_TI_9_45 (I0000009)
                                                   VCAST_TI_9_53 (I0000009)
                                                   VCAST_TI_9_54 (I0000009)
                                                   VCAST_TI_9_63 (I0000009)
                                                   VCAST_TI_9_64 (I0000009)
                                                   VCAST_TI_9_65 (I0000009)
                                                   VCAST_TI_9_68 (I0000009)
                                                   VCAST_TI_9_74 (I0000009)
                                                   VCAST_TI_9_77 (I0000009)
                                                   VCAST_TI_9_79 (I0000009)
                                                   VCAST_TI_9_80 (I0000009)
                                                   VCAST_TI_9_81 (I0000009)
               CSTACK = 00000000 ( 00000006 )
    -------------------------------------------------------------------------
<XCODE> 1 (was XCODE)
  Relative segment, address: 0000122F - 00001278 (0x4a bytes), align: 0
  Segment part 45.            Intra module refs:   vcast_get_param
                                                   vcast_get_range_value
           ENTRY                   ADDRESS         REF BY
           =====                   =======         ======
           vcast_get_param_value_with_index
                                   0000122F 
               calls direct
               CSTACK = 00000000 ( 00000008 )
    -------------------------------------------------------------------------
<XCODE> 1 (was XCODE)
  Relative segment, address: 00001279 - 0000128B (0x13 bytes), align: 0
  Segment part 46.
           ENTRY                   ADDRESS         REF BY
           =====                   =======         ======
           vcast_get_param         00001279        VCAST_TI_9_1 (I0000009)
                                                   VCAST_TI_9_10 (I0000009)
                                                   VCAST_TI_9_11 (I0000009)
                                                   VCAST_TI_9_12 (I0000009)
                                                   VCAST_TI_9_13 (I0000009)
                                                   VCAST_TI_9_14 (I0000009)
                                                   VCAST_TI_9_15 (I0000009)
                                                   VCAST_TI_9_16 (I0000009)
                                                   VCAST_TI_9_17 (I0000009)
                                                   VCAST_TI_9_18 (I0000009)
                                                   VCAST_TI_9_19 (I0000009)
                                                   VCAST_TI_9_2 (I0000009)
                                                   VCAST_TI_9_20 (I0000009)
                                                   VCAST_TI_9_21 (I0000009)
                                                   VCAST_TI_9_23 (I0000009)
                                                   VCAST_TI_9_24 (I0000009)
                                                   VCAST_TI_9_25 (I0000009)
                                                   VCAST_TI_9_26 (I0000009)
                                                   VCAST_TI_9_27 (I0000009)
                                                   VCAST_TI_9_28 (I0000009)
                                                   VCAST_TI_9_29 (I0000009)
                                                   VCAST_TI_9_30 (I0000009)
                                                   VCAST_TI_9_32 (I0000009)
                                                   VCAST_TI_9_33 (I0000009)
                                                   VCAST_TI_9_34 (I0000009)
                                                   VCAST_TI_9_35 (I0000009)
                                                   VCAST_TI_9_36 (I0000009)
                                                   VCAST_TI_9_38 (I0000009)
                                                   VCAST_TI_9_4 (I0000009)
                                                   VCAST_TI_9_40 (I0000009)
                                                   VCAST_TI_9_42 (I0000009)
                                                   VCAST_TI_9_44 (I0000009)
                                                   VCAST_TI_9_5 (I0000009)
                                                   VCAST_TI_9_53 (I0000009)
                                                   VCAST_TI_9_55 (I0000009)
                                                   VCAST_TI_9_57 (I0000009)
                                                   VCAST_TI_9_59 (I0000009)
                                                   VCAST_TI_9_7 (I0000009)
                                                   VCAST_TI_9_70 (I0000009)
                                                   VCAST_TI_9_9 (I0000009)
               calls direct
               CSTACK = 00000000 ( 00000004 )
    -------------------------------------------------------------------------
<XCODE> 1 (was XCODE)
  Relative segment, address: 0000128C - 00001329 (0x9e bytes), align: 0
  Segment part 47.
           ENTRY                   ADDRESS         REF BY
           =====                   =======         ======
           vcast_get_range_value   0000128C        VCAST_TI_8_4 (B0000008)
                                                   VCAST_TI_8_5 (B0000008)
                                                   VCAST_TI_9_111 (I0000009)
                                                   VCAST_TI_9_31 (I0000009)
                                                   VCAST_TI_9_37 (I0000009)
                                                   VCAST_TI_9_41 (I0000009)
                                                   VCAST_TI_9_43 (I0000009)
                                                   VCAST_TI_9_45 (I0000009)
                                                   VCAST_TI_9_49 (I0000009)
                                                   VCAST_TI_9_50 (I0000009)
                                                   VCAST_TI_9_54 (I0000009)
                                                   VCAST_TI_9_63 (I0000009)
                                                   VCAST_TI_9_64 (I0000009)
                                                   VCAST_TI_9_65 (I0000009)
                                                   VCAST_TI_9_68 (I0000009)
                                                   VCAST_TI_9_72 (I0000009)
                                                   VCAST_TI_9_74 (I0000009)
                                                   VCAST_TI_9_77 (I0000009)
                                                   VCAST_TI_9_79 (I0000009)
                                                   VCAST_TI_9_8 (I0000009)
                                                   VCAST_TI_9_80 (I0000009)
                                                   VCAST_TI_9_81 (I0000009)
               calls direct
               CSTACK = 00000000 ( 00000006 )
    -------------------------------------------------------------------------
<XCODE> 1 (was XCODE)
  Relative segment, address: 0000132A - 00001546 (0x21d bytes), align: 0
  Segment part 49.
           ENTRY                   ADDRESS         REF BY
           =====                   =======         ======
           VCAST_TI_BITFIELD       0000132A        VCAST_TI_9_11 (I0000009)
                                                   VCAST_TI_9_13 (I0000009)
                                                   VCAST_TI_9_15 (I0000009)
                                                   VCAST_TI_9_17 (I0000009)
                                                   VCAST_TI_9_19 (I0000009)
                                                   VCAST_TI_9_2 (I0000009)
                                                   VCAST_TI_9_21 (I0000009)
                                                   VCAST_TI_9_25 (I0000009)
                                                   VCAST_TI_9_32 (I0000009)
                                                   VCAST_TI_9_34 (I0000009)
                                                   VCAST_TI_9_36 (I0000009)
                                                   VCAST_TI_9_5 (I0000009)
                                                   VCAST_TI_9_55 (I0000009)
                                                   VCAST_TI_9_57 (I0000009)
                                                   VCAST_TI_9_59 (I0000009)
                                                   VCAST_TI_9_9 (I0000009)
               calls direct
               CSTACK = 00000000 ( 00000012 )
    -------------------------------------------------------------------------
NEAR_Z
  Relative segment, address: 000FB00C - 000FB04B (0x40 bytes), align: 1
  Segment part 37.            Intra module refs:   vcast_unconvert_string_hex
                                                   vcast_unconvert_string_hex_with_length
                                                   vcast_unconvert_string_oct
                                                   vcast_unconvert_string_oct_with_length
           LOCAL                   ADDRESS         
           =====                   =======         
           vcastCommonOutputBuffer
                                   000FB00C 
    -------------------------------------------------------------------------
<XCODE> 1 (was XCODE)
  Relative segment, address: 00001547 - 0000156C (0x26 bytes), align: 0
  Segment part 50.            Intra module refs:   VCAST_TI_STRING
           ENTRY                   ADDRESS         REF BY
           =====                   =======         ======
           vcast_contains_unprintable
                                   00001547 
               CSTACK = 00000000 ( 00000004 )
    -------------------------------------------------------------------------
<XCODE> 1 (was XCODE)
  Relative segment, address: 0000156D - 00001595 (0x29 bytes), align: 0
  Segment part 51.            Intra module refs:   VCAST_TI_STRING
           ENTRY                   ADDRESS         REF BY
           =====                   =======         ======
           vcast_contains_unprintable_with_length
                                   0000156D 
               CSTACK = 00000000 ( 00000006 )
    -------------------------------------------------------------------------
<XCODE> 1 (was XCODE)
  Relative segment, address: 00001596 - 000015A7 (0x12 bytes), align: 0
  Segment part 52.            Intra module refs:   vcast_unconvert_string_oct
                                                   vcast_unconvert_string_oct_with_length
           ENTRY                   ADDRESS         REF BY
           =====                   =======         ======
           vcast_unconvert_char_oct
                                   00001596 
               calls direct
               CSTACK = 00000000 ( 00000004 )
    -------------------------------------------------------------------------
NEAR_Z
  Relative segment, address: 000FB04C - 000FB051 (0x6 bytes), align: 1
  Segment part 38.            Intra module refs:   vcast_unconvert_char_oct
           LOCAL                   ADDRESS         
           =====                   =======         
           vcast_unconvert_char_oct::output
                                   000FB04C 
    -------------------------------------------------------------------------
<XCODE> 1 (was XCODE)
  Relative segment, address: 000015A8 - 000015B9 (0x12 bytes), align: 0
  Segment part 53.            Intra module refs:   vcast_unconvert_string_hex
                                                   vcast_unconvert_string_hex_with_length
           ENTRY                   ADDRESS         REF BY
           =====                   =======         ======
           vcast_unconvert_char_hex
                                   000015A8 
               calls direct
               CSTACK = 00000000 ( 00000004 )
    -------------------------------------------------------------------------
NEAR_Z
  Relative segment, address: 000FB052 - 000FB057 (0x6 bytes), align: 1
  Segment part 39.            Intra module refs:   vcast_unconvert_char_hex
           LOCAL                   ADDRESS         
           =====                   =======         
           vcast_unconvert_char_hex::output
                                   000FB052 
    -------------------------------------------------------------------------
<XCODE> 1 (was XCODE)
  Relative segment, address: 000015BA - 000015FB (0x42 bytes), align: 0
  Segment part 54.            Intra module refs:   VCAST_TI_STRING
           ENTRY                   ADDRESS         REF BY
           =====                   =======         ======
           vcast_unconvert_string_hex
                                   000015BA 
               calls direct
               CSTACK = 00000000 ( 00000008 )
    -------------------------------------------------------------------------
<XCODE> 1 (was XCODE)
  Relative segment, address: 000015FC - 00001633 (0x38 bytes), align: 0
  Segment part 55.            Intra module refs:   VCAST_TI_STRING
           ENTRY                   ADDRESS         REF BY
           =====                   =======         ======
           vcast_unconvert_string_hex_with_length
                                   000015FC 
               calls direct
               CSTACK = 00000000 ( 00000006 )
    -------------------------------------------------------------------------
<XCODE> 1 (was XCODE)
  Relative segment, address: 00001634 - 00001675 (0x42 bytes), align: 0
  Segment part 56.            Intra module refs:   VCAST_TI_STRING
           ENTRY                   ADDRESS         REF BY
           =====                   =======         ======
           vcast_unconvert_string_oct
                                   00001634 
               calls direct
               CSTACK = 00000000 ( 00000008 )
    -------------------------------------------------------------------------
<XCODE> 1 (was XCODE)
  Relative segment, address: 00001676 - 000016AD (0x38 bytes), align: 0
  Segment part 57.            Intra module refs:   VCAST_TI_STRING
           ENTRY                   ADDRESS         REF BY
           =====                   =======         ======
           vcast_unconvert_string_oct_with_length
                                   00001676 
               calls direct
               CSTACK = 00000000 ( 00000006 )
    -------------------------------------------------------------------------
<XCODE> 1 (was XCODE)
  Relative segment, address: 000016AE - 00001858 (0x1ab bytes), align: 0
  Segment part 58.
           ENTRY                   ADDRESS         REF BY
           =====                   =======         ======
           VCAST_TI_STRING         000016AE        VCAST_TI_8_4 (B0000008)
                                                   VCAST_TI_9_111 (I0000009)
                                                   VCAST_TI_9_41 (I0000009)
                                                   VCAST_TI_9_43 (I0000009)
                                                   VCAST_TI_9_45 (I0000009)
                                                   VCAST_TI_9_53 (I0000009)
                                                   VCAST_TI_9_54 (I0000009)
                                                   VCAST_TI_9_63 (I0000009)
                                                   VCAST_TI_9_64 (I0000009)
                                                   VCAST_TI_9_65 (I0000009)
                                                   VCAST_TI_9_68 (I0000009)
                                                   VCAST_TI_9_74 (I0000009)
                                                   VCAST_TI_9_77 (I0000009)
                                                   VCAST_TI_9_79 (I0000009)
                                                   VCAST_TI_9_80 (I0000009)
                                                   VCAST_TI_9_81 (I0000009)
               calls direct
               CSTACK = 00000002 ( 00000004 )
    -------------------------------------------------------------------------
<XCODE> 1 (was XCODE)
  Relative segment, address: 00001859 - 0000189B (0x43 bytes), align: 0
  Segment part 59.            Intra module refs:   VCAST_convert
           ENTRY                   ADDRESS         REF BY
           =====                   =======         ======
           vcast_add_to_hex        00001859 
               CSTACK = 00000000 ( 00000004 )
    -------------------------------------------------------------------------
<XCODE> 1 (was XCODE)
  Relative segment, address: 0000189C - 000018EA (0x4f bytes), align: 0
  Segment part 60.            Intra module refs:   VCAST_convert
           ENTRY                   ADDRESS         REF BY
           =====                   =======         ======
           vcast_get_non_numerical_escape
                                   0000189C 
    -------------------------------------------------------------------------
<XCODE> 1 (was XCODE)
  Relative segment, address: 000018EB - 00001974 (0x8a bytes), align: 0
  Segment part 61.            Intra module refs:   VCAST_TI_STRING
           ENTRY                   ADDRESS         REF BY
           =====                   =======         ======
           vcast_convert_size      000018EB 
               calls direct
               CSTACK = 00000000 ( 0000000A )
    -------------------------------------------------------------------------
<XCODE> 1 (was XCODE)
  Relative segment, address: 00001975 - 00001A8B (0x117 bytes), align: 0
  Segment part 62.            Intra module refs:   VCAST_TI_STRING
           ENTRY                   ADDRESS         REF BY
           =====                   =======         ======
           VCAST_convert           00001975 
               calls direct
               CSTACK = 00000000 ( 0000000C )
    -------------------------------------------------------------------------
NEAR_Z
  Relative segment, address: 000FB058 - 000FB097 (0x40 bytes), align: 1
  Segment part 40.            Intra module refs:   VCAST_convert
           LOCAL                   ADDRESS         
           =====                   =======         
           VCAST_convert::output   000FB058 
    -------------------------------------------------------------------------
<XCODE> 1 (was XCODE)
  Relative segment, address: 00001A8C - 00001DCA (0x33f bytes), align: 0
  Segment part 63.
           ENTRY                   ADDRESS         REF BY
           =====                   =======         ======
           vCAST_RUN_DATA_IF       00001A8C        main (S0000003)
                                                   vCAST_READ_COMMAND_DATA (B0000002)
                                                   vCAST_READ_COMMAND_DATA_FOR_ONE_PARAM (B0000002)
                                                   vCAST_READ_COMMAND_DATA_FOR_USER_GLOBALS (B0000002)
                                                   vCAST_STORE_GLOBAL_ASCII_DATA (B0000002)
                                                   vCAST_STORE_PARAMETER_ASCII_DATA (B0000002)
               calls direct
               CSTACK = 00000000 ( 00000052 )
    -------------------------------------------------------------------------
<XCODE> 1 (was XCODE)
  Relative segment, address: 00001DCB - 00001DFE (0x34 bytes), align: 0
  Segment part 64.
           ENTRY                   ADDRESS         REF BY
           =====                   =======         ======
           vcastInitializeB1Data   00001DCB        main (S0000003)
    -------------------------------------------------------------------------
NEAR_ID
  Relative segment, address: 00000BBE - 00000BBF (0x2 bytes), align: 1
  Segment part 29.            Intra module refs:   vCAST_DATA_FIELD
    -------------------------------------------------------------------------
NEAR_ID
  Relative segment, address: 00000C30 - 00000C30 (0x1 bytes), align: 0
  Segment part 34.            Intra module refs:   vCAST_can_print_constructor
    -------------------------------------------------------------------------
NEAR_CONST
  Relative segment, address: 000F3000 - 000F3001 (0x2 bytes), align: 1
  Segment part 3.             Intra module refs:   VCAST_TI_BITFIELD
                                                   VCAST_TI_STRING
    -------------------------------------------------------------------------
NEAR_CONST
  Relative segment, address: 000F3002 - 000F3007 (0x6 bytes), align: 1
  Segment part 4.             Intra module refs:   VCAST_TI_STRING
    -------------------------------------------------------------------------
NEAR_CONST
  Relative segment, address: 000F3008 - 000F3009 (0x2 bytes), align: 1
  Segment part 5.             Intra module refs:   VCAST_TI_STRING
    -------------------------------------------------------------------------
NEAR_CONST
  Relative segment, address: 000F300A - 000F3013 (0xa bytes), align: 1
  Segment part 6.             Intra module refs:   vCAST_RUN_DATA_IF
    -------------------------------------------------------------------------
NEAR_CONST
  Relative segment, address: 000F3014 - 000F301B (0x8 bytes), align: 1
  Segment part 7.             Intra module refs:   vCAST_RUN_DATA_IF
    -------------------------------------------------------------------------
NEAR_CONST
  Relative segment, address: 000F301C - 000F3023 (0x8 bytes), align: 1
  Segment part 8.             Intra module refs:   vCAST_RUN_DATA_IF
    -------------------------------------------------------------------------
NEAR_CONST
  Relative segment, address: 000F3024 - 000F302B (0x8 bytes), align: 1
  Segment part 9.             Intra module refs:   vCAST_RUN_DATA_IF
    -------------------------------------------------------------------------
NEAR_CONST
  Relative segment, address: 000F302C - 000F3037 (0xc bytes), align: 1
  Segment part 10.            Intra module refs:   vCAST_RUN_DATA_IF
    -------------------------------------------------------------------------
NEAR_CONST
  Relative segment, address: 000F3038 - 000F3043 (0xc bytes), align: 1
  Segment part 11.            Intra module refs:   vCAST_RUN_DATA_IF
    -------------------------------------------------------------------------
NEAR_CONST
  Relative segment, address: 000F3044 - 000F304B (0x8 bytes), align: 1
  Segment part 12.            Intra module refs:   vCAST_RUN_DATA_IF
    -------------------------------------------------------------------------
NEAR_CONST
  Relative segment, address: 000F304C - 000F3055 (0xa bytes), align: 1
  Segment part 13.            Intra module refs:   vCAST_RUN_DATA_IF
    -------------------------------------------------------------------------
NEAR_CONST
  Relative segment, address: 000F3056 - 000F305F (0xa bytes), align: 1
  Segment part 14.            Intra module refs:   vCAST_RUN_DATA_IF
    -------------------------------------------------------------------------
NEAR_CONST
  Relative segment, address: 000F3060 - 000F3069 (0xa bytes), align: 1
  Segment part 15.            Intra module refs:   vCAST_RUN_DATA_IF
    -------------------------------------------------------------------------
NEAR_CONST
  Relative segment, address: 000F306A - 000F3073 (0xa bytes), align: 1
  Segment part 16.            Intra module refs:   vCAST_RUN_DATA_IF
    -------------------------------------------------------------------------
NEAR_CONST
  Relative segment, address: 000F3074 - 000F307D (0xa bytes), align: 1
  Segment part 17.            Intra module refs:   vCAST_RUN_DATA_IF
    -------------------------------------------------------------------------
NEAR_CONST
  Relative segment, address: 000F307E - 000F307F (0x2 bytes), align: 1
  Segment part 18.            Intra module refs:   vCAST_RUN_DATA_IF
    -------------------------------------------------------------------------
NEAR_CONST
  Relative segment, address: 000F3080 - 000F308B (0xc bytes), align: 1
  Segment part 19.            Intra module refs:   vCAST_RUN_DATA_IF
    -------------------------------------------------------------------------
NEAR_CONST_ID
  Relative segment, address: 00003000 - 00003001 (0x2 bytes), align: 1
  Segment part 66.            Intra module refs:   Segment part 3
    -------------------------------------------------------------------------
NEAR_CONST_ID
  Relative segment, address: 00003002 - 00003007 (0x6 bytes), align: 1
  Segment part 67.            Intra module refs:   Segment part 4
    -------------------------------------------------------------------------
NEAR_CONST_ID
  Relative segment, address: 00003008 - 00003009 (0x2 bytes), align: 1
  Segment part 68.            Intra module refs:   Segment part 5
    -------------------------------------------------------------------------
NEAR_CONST_ID
  Relative segment, address: 0000300A - 00003013 (0xa bytes), align: 1
  Segment part 69.            Intra module refs:   Segment part 6
    -------------------------------------------------------------------------
NEAR_CONST_ID
  Relative segment, address: 00003014 - 0000301B (0x8 bytes), align: 1
  Segment part 70.            Intra module refs:   Segment part 7
    -------------------------------------------------------------------------
NEAR_CONST_ID
  Relative segment, address: 0000301C - 00003023 (0x8 bytes), align: 1
  Segment part 71.            Intra module refs:   Segment part 8
    -------------------------------------------------------------------------
NEAR_CONST_ID
  Relative segment, address: 00003024 - 0000302B (0x8 bytes), align: 1
  Segment part 72.            Intra module refs:   Segment part 9
    -------------------------------------------------------------------------
NEAR_CONST_ID
  Relative segment, address: 0000302C - 00003037 (0xc bytes), align: 1
  Segment part 73.            Intra module refs:   Segment part 10
    -------------------------------------------------------------------------
NEAR_CONST_ID
  Relative segment, address: 00003038 - 00003043 (0xc bytes), align: 1
  Segment part 74.            Intra module refs:   Segment part 11
    -------------------------------------------------------------------------
NEAR_CONST_ID
  Relative segment, address: 00003044 - 0000304B (0x8 bytes), align: 1
  Segment part 75.            Intra module refs:   Segment part 12
    -------------------------------------------------------------------------
NEAR_CONST_ID
  Relative segment, address: 0000304C - 00003055 (0xa bytes), align: 1
  Segment part 76.            Intra module refs:   Segment part 13
    -------------------------------------------------------------------------
NEAR_CONST_ID
  Relative segment, address: 00003056 - 0000305F (0xa bytes), align: 1
  Segment part 77.            Intra module refs:   Segment part 14
    -------------------------------------------------------------------------
NEAR_CONST_ID
  Relative segment, address: 00003060 - 00003069 (0xa bytes), align: 1
  Segment part 78.            Intra module refs:   Segment part 15
    -------------------------------------------------------------------------
NEAR_CONST_ID
  Relative segment, address: 0000306A - 00003073 (0xa bytes), align: 1
  Segment part 79.            Intra module refs:   Segment part 16
    -------------------------------------------------------------------------
NEAR_CONST_ID
  Relative segment, address: 00003074 - 0000307D (0xa bytes), align: 1
  Segment part 80.            Intra module refs:   Segment part 17
    -------------------------------------------------------------------------
NEAR_CONST_ID
  Relative segment, address: 0000307E - 0000307F (0x2 bytes), align: 1
  Segment part 81.            Intra module refs:   Segment part 18
    -------------------------------------------------------------------------
NEAR_CONST_ID
  Relative segment, address: 00003080 - 0000308B (0xc bytes), align: 1
  Segment part 82.            Intra module refs:   Segment part 19

    *************************************************************************

  FILE NAME : C:\Users\zhu1\Downloads\SW_Need_Change_Managemant\GEEA2.0\E4-2_SW\RLS_SYS_RLS_GP_RLXS_GEN5_DEV_APL_GEELY2.0_RLFS_FOR_E4_03\05_SwDev\01_SrcCode\Application\CustomerInterface\ModuleTest\1234\B0000002.r87
  PROGRAM MODULE, NAME : B0000002

  SEGMENTS IN THE MODULE
  ======================
<XCODE> 3 (was XCODE)
  Relative segment, address: 00010000 - 00010004 (0x5 bytes), align: 0
  Segment part 49.            Intra module refs:   VCAST_malloc
           ENTRY                   ADDRESS         REF BY
           =====                   =======         ======
           malloc                  00010000 
               calls direct
    -------------------------------------------------------------------------
<XCODE> 3 (was XCODE)
  Relative segment, address: 00010005 - 00010030 (0x2c bytes), align: 0
  Segment part 50.            Intra module refs:   VCAST_WRITE_FN_CALL_ID
                                                   VCAST_WRITE_MCDC_ID
                                                   VCAST_WRITE_OPTIMIZED_MCDC_ID
                                                   VCAST_WRITE_STATEMENT_ID
           ENTRY                   ADDRESS         REF BY
           =====                   =======         ======
           vcast_strcat            00010005 
               CSTACK = 00000000 ( 00000006 )
    -------------------------------------------------------------------------
<XCODE> 3 (was XCODE)
  Relative segment, address: 00010031 - 000100FD (0xcd bytes), align: 0
  Segment part 52.            Intra module refs:   VCAST_WRITE_FN_CALL_ID
                                                   VCAST_WRITE_MCDC_ID
                                                   VCAST_WRITE_OPTIMIZED_MCDC_ID
                                                   VCAST_WRITE_STATEMENT_ID
           ENTRY                   ADDRESS         REF BY
           =====                   =======         ======
           vcast_int_to_string     00010031 
               CSTACK = 00000004 ( 0000000C )
    -------------------------------------------------------------------------
NEAR_Z
  Relative segment, address: 000FB098 - 000FB0B1 (0x1a bytes), align: 1
  Segment part 33.            Intra module refs:   vcast_unit_list_values
           ENTRY                   ADDRESS         REF BY
           =====                   =======         ======
           vcast_unit_stmt_bytes_9
                                   000FB098        AdjustOutHudValue (I0000009)
                                                   ApplLinInit (I0000009)
                                                   ApplLinSlavePreCopy (I0000009)
                                                   CRC8SAEJ1850 (I0000009)
                                                   CalcHUDMean_1000ms (I0000009)
                                                   CheckErrors (I0000009)
                                                   CopyRLSData (I0000009)
                                                   GetFiveTableValue_500ms (I0000009)
                                                   GetFiveTableValue_50ms (I0000009)
                                                   GetHudCrcj1850 (I0000009)
                                                   GetLeWWS (I0000009)
                                                   GetLightTransmission (I0000009)
                                                   GetLsWWS (I0000009)
                                                   GetOutdBriStsCrcj1850 (I0000009)
                                                   GetUpdateTimeForLightStatus (I0000009)
                                                   Get_BCMVehType (I0000009)
                                                   Humidity_Function (I0000009)
                                                   IsByteOddParity (I0000009)
                                                   LightFunction (I0000009)
                                                   OutPutBrightnessValue (I0000009)
                                                   OutPutHudSendCount (I0000009)
                                                   OutPutHudValue (I0000009)
                                                   OutPutSolarValue (I0000009)
                                                   OutPutTwliBriValue (I0000009)
                                                   RainFunction (I0000009)
                                                   SendRLSMPartNo (I0000009)
                                                   SendRLSMPartNo10 (I0000009)
                                                   SendRLSSerNo (I0000009)
                                                   Set_BCMLightOffset (I0000009)
                                                   StandByMode (I0000009)
                                                   TemperatureDetect (I0000009)
                                                   VoltageDetect (I0000009)
                                                   WipeWinterModeCheck (I0000009)
                                                   orderHUDValue (I0000009)
    -------------------------------------------------------------------------
NEAR_Z
  Relative segment, address: 000FB0B2 - 000FB0B3 (0x2 bytes), align: 1
  Segment part 34.            Intra module refs:   vcast_unit_list_values
           ENTRY                   ADDRESS         REF BY
           =====                   =======         ======
           vcast_unit_mcdc_bytes_9
                                   000FB0B2        LightFunction (I0000009)
    -------------------------------------------------------------------------
NEAR_Z
  Relative segment, address: 000FB0B4 - 000FB0B9 (0x6 bytes), align: 1
  Segment part 35.            Intra module refs:   vcast_unit_list_values
           ENTRY                   ADDRESS         REF BY
           =====                   =======         ======
           vcast_unit_fn_call_bytes_9
                                   000FB0B4        ApplLinInit (I0000009)
                                                   CalcHUDMean_1000ms (I0000009)
                                                   CheckErrors (I0000009)
                                                   CopyRLSData (I0000009)
                                                   GetFiveTableValue_500ms (I0000009)
                                                   GetFiveTableValue_50ms (I0000009)
                                                   GetHudCrcj1850 (I0000009)
                                                   GetLeWWS (I0000009)
                                                   GetOutdBriStsCrcj1850 (I0000009)
                                                   LightFunction (I0000009)
                                                   OutPutBrightnessValue (I0000009)
                                                   OutPutHudValue (I0000009)
                                                   OutPutSolarValue (I0000009)
                                                   OutPutTwliBriValue (I0000009)
                                                   StandByMode (I0000009)
    -------------------------------------------------------------------------
NEAR_Z
  Relative segment, address: 000FB0BA - 000FB0C3 (0xa bytes), align: 1
  Segment part 36.            Intra module refs:   vcast_unit_list_values
           ENTRY                   ADDRESS         REF BY
           =====                   =======         ======
           vcast_unit_optimized_mcdc_bytes_9_0
                                   000FB0BA        AdjustOutHudValue (I0000009)
                                                   ApplLinInit (I0000009)
                                                   ApplLinSlavePreCopy (I0000009)
                                                   CRC8SAEJ1850 (I0000009)
                                                   CalcHUDMean_1000ms (I0000009)
                                                   CheckErrors (I0000009)
                                                   CopyRLSData (I0000009)
                                                   GetFiveTableValue_500ms (I0000009)
                                                   GetFiveTableValue_50ms (I0000009)
                                                   GetHudCrcj1850 (I0000009)
                                                   GetLeWWS (I0000009)
                                                   GetLightTransmission (I0000009)
                                                   GetLsWWS (I0000009)
                                                   GetOutdBriStsCrcj1850 (I0000009)
                                                   GetUpdateTimeForLightStatus (I0000009)
                                                   Get_BCMVehType (I0000009)
                                                   Humidity_Function (I0000009)
                                                   IsByteOddParity (I0000009)
                                                   LightFunction (I0000009)
                                                   OutPutBrightnessValue (I0000009)
                                                   OutPutHudSendCount (I0000009)
                                                   OutPutHudValue (I0000009)
                                                   OutPutSolarValue (I0000009)
                                                   OutPutTwliBriValue (I0000009)
                                                   RainFunction (I0000009)
                                                   SendRLSMPartNo (I0000009)
                                                   SendRLSMPartNo10 (I0000009)
                                                   SendRLSSerNo (I0000009)
                                                   Set_BCMLightOffset (I0000009)
                                                   StandByMode (I0000009)
                                                   TemperatureDetect (I0000009)
                                                   VoltageDetect (I0000009)
                                                   WipeWinterModeCheck (I0000009)
                                                   orderHUDValue (I0000009)
    -------------------------------------------------------------------------
NEAR_Z
  Relative segment, address: 000FB0C4 - 000FB105 (0x42 bytes), align: 1
  Segment part 37.            Intra module refs:   vcast_unit_list_values
           ENTRY                   ADDRESS         REF BY
           =====                   =======         ======
           vcast_unit_optimized_mcdc_bytes_9_1
                                   000FB0C4        AdjustOutHudValue (I0000009)
                                                   ApplLinInit (I0000009)
                                                   ApplLinSlavePreCopy (I0000009)
                                                   CRC8SAEJ1850 (I0000009)
                                                   CalcHUDMean_1000ms (I0000009)
                                                   CheckErrors (I0000009)
                                                   CopyRLSData (I0000009)
                                                   GetFiveTableValue_500ms (I0000009)
                                                   GetFiveTableValue_50ms (I0000009)
                                                   GetLeWWS (I0000009)
                                                   GetLsWWS (I0000009)
                                                   GetUpdateTimeForLightStatus (I0000009)
                                                   Get_BCMVehType (I0000009)
                                                   Humidity_Function (I0000009)
                                                   IsByteOddParity (I0000009)
                                                   LightFunction (I0000009)
                                                   OutPutBrightnessValue (I0000009)
                                                   OutPutHudSendCount (I0000009)
                                                   OutPutHudValue (I0000009)
                                                   OutPutSolarValue (I0000009)
                                                   OutPutTwliBriValue (I0000009)
                                                   RainFunction (I0000009)
                                                   Set_BCMLightOffset (I0000009)
                                                   StandByMode (I0000009)
                                                   TemperatureDetect (I0000009)
                                                   VoltageDetect (I0000009)
                                                   orderHUDValue (I0000009)
    -------------------------------------------------------------------------
NEAR_Z
  Relative segment, address: 000FB106 - 000FB131 (0x2c bytes), align: 1
  Segment part 38.            Intra module refs:   vcast_unit_list_values
           ENTRY                   ADDRESS         REF BY
           =====                   =======         ======
           vcast_unit_optimized_mcdc_bytes_9_2
                                   000FB106        AdjustOutHudValue (I0000009)
                                                   CalcHUDMean_1000ms (I0000009)
                                                   CheckErrors (I0000009)
                                                   CopyRLSData (I0000009)
                                                   GetLeWWS (I0000009)
                                                   GetLightTransmission (I0000009)
                                                   GetLsWWS (I0000009)
                                                   GetUpdateTimeForLightStatus (I0000009)
                                                   Humidity_Function (I0000009)
                                                   LightFunction (I0000009)
                                                   OutPutBrightnessValue (I0000009)
                                                   OutPutSolarValue (I0000009)
                                                   RainFunction (I0000009)
                                                   WipeWinterModeCheck (I0000009)
    -------------------------------------------------------------------------
NEAR_Z
  Relative segment, address: 000FB132 - 000FB151 (0x20 bytes), align: 1
  Segment part 39.            Intra module refs:   vcast_unit_list_values
           ENTRY                   ADDRESS         REF BY
           =====                   =======         ======
           vcast_unit_optimized_mcdc_bytes_9_3
                                   000FB132        CheckErrors (I0000009)
                                                   GetLeWWS (I0000009)
                                                   GetLsWWS (I0000009)
                                                   LightFunction (I0000009)
                                                   RainFunction (I0000009)
                                                   StandByMode (I0000009)
    -------------------------------------------------------------------------
NEAR_Z
  Relative segment, address: 000FB152 - 000FB1A1 (0x50 bytes), align: 1
  Segment part 40.            Intra module refs:   vcast_unit_list_values
           ENTRY                   ADDRESS         REF BY
           =====                   =======         ======
           vcast_unit_optimized_mcdc_bytes_9_4
                                   000FB152        GetLeWWS (I0000009)
                                                   Get_BCMVehType (I0000009)
                                                   LightFunction (I0000009)
                                                   RainFunction (I0000009)
                                                   Set_BCMLightOffset (I0000009)
                                                   TemperatureDetect (I0000009)
    -------------------------------------------------------------------------
NEAR_Z
  Relative segment, address: 000FB1A2 - 000FB1E9 (0x48 bytes), align: 1
  Segment part 41.            Intra module refs:   vcast_unit_list_values
           ENTRY                   ADDRESS         REF BY
           =====                   =======         ======
           vcast_unit_optimized_mcdc_bytes_9_5
                                   000FB1A2        CheckErrors (I0000009)
                                                   GetLightTransmission (I0000009)
    -------------------------------------------------------------------------
NEAR_CONST
  Relative segment, address: 000F308C - 000F30EF (0x64 bytes), align: 1
  Segment part 45.            Intra module refs:   VCAST_DUMP_COVERAGE_DATA_ID
           LOCAL                   ADDRESS         
           =====                   =======         
           vcast_unit_list_values
                                   000F308C 
    -------------------------------------------------------------------------
NEAR_Z
  Relative segment, address: 000FB1EA - 000FB1EB (0x2 bytes), align: 1
  Segment part 46.            Intra module refs:   vcast_insert
           LOCAL                   ADDRESS         
           =====                   =======         
           vcast_max_mcdc_statements_exceeded
                                   000FB1EA 
    -------------------------------------------------------------------------
<XCODE> 3 (was XCODE)
  Relative segment, address: 000100FE - 00010107 (0xa bytes), align: 0
  Segment part 53.            Intra module refs:   VCAST_MCDC_CONDITION_INSTRUMENTATION_POINT_BUFFERED
           ENTRY                   ADDRESS         REF BY
           =====                   =======         ======
           vcast_get_mcdc_statement
                                   000100FE 
               calls direct
    -------------------------------------------------------------------------
<XCODE> 3 (was XCODE)
  Relative segment, address: 00010108 - 00010111 (0xa bytes), align: 0
  Segment part 54.            Intra module refs:   vcast_insert
           ENTRY                   ADDRESS         REF BY
           =====                   =======         ======
           vcast_getAVLTree        00010108 
               calls direct
    -------------------------------------------------------------------------
<XCODE> 3 (was XCODE)
  Relative segment, address: 00010112 - 0001016D (0x5c bytes), align: 0
  Segment part 56.            Intra module refs:   VCAST_DUMP_FN_CALL_COVERAGE_DATA_ID
           ENTRY                   ADDRESS         REF BY
           =====                   =======         ======
           VCAST_WRITE_FN_CALL_ID
                                   00010112 
               calls direct
               CSTACK = 00000000 ( 0000001A )
    -------------------------------------------------------------------------
<XCODE> 3 (was XCODE)
  Relative segment, address: 0001016E - 000101BD (0x50 bytes), align: 0
  Segment part 57.            Intra module refs:   VCAST_DUMP_STATEMENT_COVERAGE_DATA_ID
           ENTRY                   ADDRESS         REF BY
           =====                   =======         ======
           VCAST_WRITE_STATEMENT_ID
                                   0001016E 
               calls direct
               CSTACK = 00000000 ( 00000018 )
    -------------------------------------------------------------------------
<XCODE> 3 (was XCODE)
  Relative segment, address: 000101BE - 00010271 (0xb4 bytes), align: 0
  Segment part 58.            Intra module refs:   VCAST_DUMP_MCDC_COVERAGE_ID
           ENTRY                   ADDRESS         REF BY
           =====                   =======         ======
           VCAST_WRITE_MCDC_ID     000101BE 
               calls direct
               CSTACK = 00000008 ( 00000048 )
    -------------------------------------------------------------------------
<XCODE> 3 (was XCODE)
  Relative segment, address: 00010272 - 0001032F (0xbe bytes), align: 0
  Segment part 59.            Intra module refs:   VCAST_DUMP_OPTIMIZED_MCDC_COVERAGE_DATA_ID
           ENTRY                   ADDRESS         REF BY
           =====                   =======         ======
           VCAST_WRITE_OPTIMIZED_MCDC_ID
                                   00010272 
               calls direct
               CSTACK = 00000008 ( 0000004C )
    -------------------------------------------------------------------------
<XCODE> 3 (was XCODE)
  Relative segment, address: 00010330 - 00010342 (0x13 bytes), align: 0
  Segment part 60.            Intra module refs:   vcast_insert
           ENTRY                   ADDRESS         REF BY
           =====                   =======         ======
           vcast_fatal_error       00010330 
               calls direct
               CSTACK = 00000000 ( 00000004 )
    -------------------------------------------------------------------------
<XCODE> 3 (was XCODE)
  Relative segment, address: 00010343 - 000103AC (0x6a bytes), align: 0
  Segment part 61.            Intra module refs:   vcast_find
                                                   vcast_insert
           ENTRY                   ADDRESS         REF BY
           =====                   =======         ======
           vcast_mcdc_statement_compare
                                   00010343 
               CSTACK = 00000000 ( 00000006 )
    -------------------------------------------------------------------------
<XCODE> 3 (was XCODE)
  Relative segment, address: 000103AD - 00010412 (0x66 bytes), align: 0
  Segment part 62.
           ENTRY                   ADDRESS         REF BY
           =====                   =======         ======
           VCAST_SAVE_MCDC_SUBCONDITION
                                   000103AD        AdjustOutHudValue (I0000009)
                                                   ApplLinInit (I0000009)
                                                   ApplLinSlavePreCopy (I0000009)
                                                   CRC8SAEJ1850 (I0000009)
                                                   CalcHUDMean_1000ms (I0000009)
                                                   CheckErrors (I0000009)
                                                   CopyRLSData (I0000009)
                                                   GetFiveTableValue_500ms (I0000009)
                                                   GetFiveTableValue_50ms (I0000009)
                                                   GetLeWWS (I0000009)
                                                   GetLightTransmission (I0000009)
                                                   GetLsWWS (I0000009)
                                                   GetUpdateTimeForLightStatus (I0000009)
                                                   Get_BCMVehType (I0000009)
                                                   Humidity_Function (I0000009)
                                                   IsByteOddParity (I0000009)
                                                   LightFunction (I0000009)
                                                   OutPutBrightnessValue (I0000009)
                                                   OutPutHudSendCount (I0000009)
                                                   OutPutHudValue (I0000009)
                                                   OutPutSolarValue (I0000009)
                                                   OutPutTwliBriValue (I0000009)
                                                   RainFunction (I0000009)
                                                   Set_BCMLightOffset (I0000009)
                                                   StandByMode (I0000009)
                                                   TemperatureDetect (I0000009)
                                                   VoltageDetect (I0000009)
                                                   WipeWinterModeCheck (I0000009)
                                                   orderHUDValue (I0000009)
               CSTACK = 00000004 ( 0000000A )
    -------------------------------------------------------------------------
<XCODE> 3 (was XCODE)
  Relative segment, address: 00010413 - 000104C7 (0xb5 bytes), align: 0
  Segment part 64.
           ENTRY                   ADDRESS         REF BY
           =====                   =======         ======
           VCAST_MCDC_CONDITION_INSTRUMENTATION_POINT_BUFFERED
                                   00010413        LightFunction (I0000009)
               calls direct
               CSTACK = 00000006 ( 00000004 )
    -------------------------------------------------------------------------
<XCODE> 3 (was XCODE)
  Relative segment, address: 000104C8 - 00010591 (0xca bytes), align: 0
  Segment part 66.
           ENTRY                   ADDRESS         REF BY
           =====                   =======         ======
           VCAST_OPTIMIZED_MCDC_CONDITION_INSTRUMENTATION_POINT_BUFFERED_1
                                   000104C8        AdjustOutHudValue (I0000009)
                                                   ApplLinInit (I0000009)
                                                   ApplLinSlavePreCopy (I0000009)
                                                   CRC8SAEJ1850 (I0000009)
                                                   CalcHUDMean_1000ms (I0000009)
                                                   CheckErrors (I0000009)
                                                   CopyRLSData (I0000009)
                                                   GetFiveTableValue_500ms (I0000009)
                                                   GetFiveTableValue_50ms (I0000009)
                                                   GetLeWWS (I0000009)
                                                   GetLsWWS (I0000009)
                                                   GetUpdateTimeForLightStatus (I0000009)
                                                   Get_BCMVehType (I0000009)
                                                   Humidity_Function (I0000009)
                                                   IsByteOddParity (I0000009)
                                                   LightFunction (I0000009)
                                                   OutPutBrightnessValue (I0000009)
                                                   OutPutHudSendCount (I0000009)
                                                   OutPutHudValue (I0000009)
                                                   OutPutSolarValue (I0000009)
                                                   OutPutTwliBriValue (I0000009)
                                                   RainFunction (I0000009)
                                                   Set_BCMLightOffset (I0000009)
                                                   StandByMode (I0000009)
                                                   TemperatureDetect (I0000009)
                                                   VoltageDetect (I0000009)
                                                   orderHUDValue (I0000009)
               CSTACK = 00000006 ( 0000000A )
    -------------------------------------------------------------------------
<XCODE> 3 (was XCODE)
  Relative segment, address: 00010592 - 0001074A (0x1b9 bytes), align: 0
  Segment part 67.
           ENTRY                   ADDRESS         REF BY
           =====                   =======         ======
           VCAST_OPTIMIZED_MCDC_CONDITION_INSTRUMENTATION_POINT_BUFFERED
                                   00010592        AdjustOutHudValue (I0000009)
                                                   CalcHUDMean_1000ms (I0000009)
                                                   CheckErrors (I0000009)
                                                   CopyRLSData (I0000009)
                                                   GetLeWWS (I0000009)
                                                   GetLightTransmission (I0000009)
                                                   GetLsWWS (I0000009)
                                                   GetUpdateTimeForLightStatus (I0000009)
                                                   Get_BCMVehType (I0000009)
                                                   Humidity_Function (I0000009)
                                                   LightFunction (I0000009)
                                                   OutPutBrightnessValue (I0000009)
                                                   OutPutSolarValue (I0000009)
                                                   RainFunction (I0000009)
                                                   Set_BCMLightOffset (I0000009)
                                                   StandByMode (I0000009)
                                                   TemperatureDetect (I0000009)
                                                   WipeWinterModeCheck (I0000009)
               CSTACK = 00000008 ( 00000010 )
    -------------------------------------------------------------------------
NEAR_Z
  Relative segment, address: 000FB1EC - 000FB1ED (0x2 bytes), align: 1
  Segment part 47.            Intra module refs:   vcast_find
           ENTRY                   ADDRESS         REF BY
           =====                   =======         ======
           vcast_find_val          000FB1EC 
    -------------------------------------------------------------------------
<XCODE> 3 (was XCODE)
  Relative segment, address: 0001074B - 0001078E (0x44 bytes), align: 0
  Segment part 68.            Intra module refs:   VCAST_MCDC_CONDITION_INSTRUMENTATION_POINT_BUFFERED
           ENTRY                   ADDRESS         REF BY
           =====                   =======         ======
           vcast_find              0001074B 
               calls direct
               CSTACK = 00000000 ( 00000004 )
    -------------------------------------------------------------------------
<XCODE> 3 (was XCODE)
  Relative segment, address: 0001078F - 0001079D (0xf bytes), align: 0
  Segment part 69.            Intra module refs:   vcast_insert
                                                   vcast_singleRotateWithLeft
                                                   vcast_singleRotateWithRight
           LOCAL                   ADDRESS         
           =====                   =======         
           vcast_height            0001078F 
    -------------------------------------------------------------------------
<XCODE> 3 (was XCODE)
  Relative segment, address: 0001079E - 000107AE (0x11 bytes), align: 0
  Segment part 70.            Intra module refs:   vcast_insert
                                                   vcast_singleRotateWithLeft
                                                   vcast_singleRotateWithRight
           LOCAL                   ADDRESS         
           =====                   =======         
           vcast_avl_max           0001079E 
               CSTACK = 00000000 ( 00000002 )
    -------------------------------------------------------------------------
<XCODE> 3 (was XCODE)
  Relative segment, address: 000107AF - 000107FA (0x4c bytes), align: 0
  Segment part 71.            Intra module refs:   vcast_doubleRotateWithLeft
                                                   vcast_doubleRotateWithRight
                                                   vcast_insert
           LOCAL                   ADDRESS         
           =====                   =======         
           vcast_singleRotateWithLeft
                                   000107AF 
               calls direct
               CSTACK = 00000000 ( 00000006 )
    -------------------------------------------------------------------------
<XCODE> 3 (was XCODE)
  Relative segment, address: 000107FB - 00010846 (0x4c bytes), align: 0
  Segment part 72.            Intra module refs:   vcast_doubleRotateWithLeft
                                                   vcast_doubleRotateWithRight
                                                   vcast_insert
           LOCAL                   ADDRESS         
           =====                   =======         
           vcast_singleRotateWithRight
                                   000107FB 
               calls direct
               CSTACK = 00000000 ( 00000006 )
    -------------------------------------------------------------------------
<XCODE> 3 (was XCODE)
  Relative segment, address: 00010847 - 00010857 (0x11 bytes), align: 0
  Segment part 73.            Intra module refs:   vcast_insert
           LOCAL                   ADDRESS         
           =====                   =======         
           vcast_doubleRotateWithLeft
                                   00010847 
               calls direct
               CSTACK = 00000000 ( 00000002 )
    -------------------------------------------------------------------------
<XCODE> 3 (was XCODE)
  Relative segment, address: 00010858 - 00010868 (0x11 bytes), align: 0
  Segment part 74.            Intra module refs:   vcast_insert
           LOCAL                   ADDRESS         
           =====                   =======         
           vcast_doubleRotateWithRight
                                   00010858 
               calls direct
               CSTACK = 00000000 ( 00000002 )
    -------------------------------------------------------------------------
NEAR_Z
  Relative segment, address: 000FB1EE - 000FB1EF (0x2 bytes), align: 1
  Segment part 48.            Intra module refs:   vcast_insert
           ENTRY                   ADDRESS         REF BY
           =====                   =======         ======
           vcast_insert_val        000FB1EE 
    -------------------------------------------------------------------------
<XCODE> 3 (was XCODE)
  Relative segment, address: 00010869 - 00010954 (0xec bytes), align: 0
  Segment part 75.            Intra module refs:   VCAST_MCDC_CONDITION_INSTRUMENTATION_POINT_BUFFERED
           ENTRY                   ADDRESS         REF BY
           =====                   =======         ======
           vcast_insert            00010869 
               calls direct
               CSTACK = 00000000 ( 00000004 )
    -------------------------------------------------------------------------
<XCODE> 3 (was XCODE)
  Relative segment, address: 00010955 - 0001099F (0x4b bytes), align: 0
  Segment part 77.            Intra module refs:   VCAST_DUMP_MCDC_COVERAGE_DATA_ID
           ENTRY                   ADDRESS         REF BY
           =====                   =======         ======
           VCAST_DUMP_MCDC_COVERAGE_ID
                                   00010955 
               calls direct
               CSTACK = 00000000 ( 0000000E )
    -------------------------------------------------------------------------
<XCODE> 3 (was XCODE)
  Relative segment, address: 000109A0 - 000109F7 (0x58 bytes), align: 0
  Segment part 78.            Intra module refs:   VCAST_DUMP_COVERAGE_DATA_ID
           ENTRY                   ADDRESS         REF BY
           =====                   =======         ======
           VCAST_DUMP_STATEMENT_COVERAGE_DATA_ID
                                   000109A0 
               calls direct
               CSTACK = 00000000 ( 0000000A )
    -------------------------------------------------------------------------
<XCODE> 3 (was XCODE)
  Relative segment, address: 000109F8 - 00010A4F (0x58 bytes), align: 0
  Segment part 79.            Intra module refs:   VCAST_DUMP_COVERAGE_DATA_ID
           ENTRY                   ADDRESS         REF BY
           =====                   =======         ======
           VCAST_DUMP_FN_CALL_COVERAGE_DATA_ID
                                   000109F8 
               calls direct
               CSTACK = 00000000 ( 0000000A )
    -------------------------------------------------------------------------
<XCODE> 3 (was XCODE)
  Relative segment, address: 00010A50 - 00010A95 (0x46 bytes), align: 0
  Segment part 80.            Intra module refs:   VCAST_DUMP_COVERAGE_DATA_ID
           ENTRY                   ADDRESS         REF BY
           =====                   =======         ======
           VCAST_DUMP_MCDC_COVERAGE_DATA_ID
                                   00010A50 
               calls direct
               CSTACK = 00000000 ( 00000008 )
    -------------------------------------------------------------------------
<XCODE> 3 (was XCODE)
  Relative segment, address: 00010A96 - 00010C8B (0x1f6 bytes), align: 0
  Segment part 81.            Intra module refs:   VCAST_DUMP_COVERAGE_DATA_ID
           ENTRY                   ADDRESS         REF BY
           =====                   =======         ======
           VCAST_DUMP_OPTIMIZED_MCDC_COVERAGE_DATA_ID
                                   00010A96 
               calls direct
               CSTACK = 00000002 ( 00000020 )
    -------------------------------------------------------------------------
<XCODE> 3 (was XCODE)
  Relative segment, address: 00010C8C - 00010DAD (0x122 bytes), align: 0
  Segment part 82.            Intra module refs:   VCAST_DUMP_COVERAGE_DATA
           ENTRY                   ADDRESS         REF BY
           =====                   =======         ======
           VCAST_DUMP_COVERAGE_DATA_ID
                                   00010C8C 
               calls direct
               CSTACK = 00000000 ( 0000000A )
    -------------------------------------------------------------------------
<XCODE> 3 (was XCODE)
  Relative segment, address: 00010DAE - 00010DB2 (0x5 bytes), align: 0
  Segment part 83.
           ENTRY                   ADDRESS         REF BY
           =====                   =======         ======
           VCAST_DUMP_COVERAGE_DATA
                                   00010DAE        VCAST_driver_termination (S0000003)
               calls direct
    -------------------------------------------------------------------------
<XCODE> 3 (was XCODE)
  Relative segment, address: 00010DB3 - 00010E1E (0x6c bytes), align: 0
  Segment part 94.            Intra module refs:   vcast_get_hc_id
                                                   vcast_get_parameter_id
                                                   vcast_get_parameter_id_str
                                                   vcast_get_subprogram_id
                                                   vcast_get_unit_id
                                                   vcast_get_unit_id_str
           LOCAL                   ADDRESS         
           =====                   =======         
           vcast_get_position      00010DB3 
               CSTACK = 00000000 ( 0000000C )
    -------------------------------------------------------------------------
<XCODE> 3 (was XCODE)
  Relative segment, address: 00010E1F - 00010E37 (0x19 bytes), align: 0
  Segment part 95.            Intra module refs:   vCAST_READ_COMMAND_DATA
           ENTRY                   ADDRESS         REF BY
           =====                   =======         ======
           vcast_get_hc_id         00010E1F 
               calls direct
               CSTACK = 00000000 ( 0000000C )
    -------------------------------------------------------------------------
<XCODE> 3 (was XCODE)
  Relative segment, address: 00010E38 - 00010E43 (0xc bytes), align: 0
  Segment part 96.            Intra module refs:   vCAST_READ_COMMAND_DATA_FOR_USER_GLOBALS
           ENTRY                   ADDRESS         REF BY
           =====                   =======         ======
           vcast_get_unit_id_str   00010E38 
               calls direct
               CSTACK = 00000000 ( 00000002 )
    -------------------------------------------------------------------------
<XCODE> 3 (was XCODE)
  Relative segment, address: 00010E44 - 00010E5C (0x19 bytes), align: 0
  Segment part 97.            Intra module refs:   vCAST_OPEN_HARNOPTS_FILE
                                                   vCAST_READ_COMMAND_DATA
                                                   vCAST_READ_COMMAND_DATA_FOR_ONE_PARAM
                                                   vCAST_STORE_PARAMETER_ASCII_DATA
                                                   vCAST_isUUTorGlobal
           ENTRY                   ADDRESS         REF BY
           =====                   =======         ======
           vcast_get_unit_id       00010E44        vCAST_RUN_DATA_IF (B0000001)
               calls direct
               CSTACK = 00000000 ( 0000000C )
    -------------------------------------------------------------------------
<XCODE> 3 (was XCODE)
  Relative segment, address: 00010E5D - 00010E77 (0x1b bytes), align: 0
  Segment part 99.            Intra module refs:   vCAST_OPEN_HARNOPTS_FILE
                                                   vCAST_READ_COMMAND_DATA
                                                   vCAST_READ_COMMAND_DATA_FOR_ONE_PARAM
                                                   vCAST_STORE_GLOBAL_ASCII_DATA
                                                   vCAST_STORE_PARAMETER_ASCII_DATA
                                                   vCAST_isUUTorGlobal
           ENTRY                   ADDRESS         REF BY
           =====                   =======         ======
           vcast_get_subprogram_id
                                   00010E5D        vCAST_RUN_DATA_IF (B0000001)
               calls direct
               CSTACK = 00000000 ( 0000000C )
    -------------------------------------------------------------------------
<XCODE> 3 (was XCODE)
  Relative segment, address: 00010E78 - 00010E85 (0xe bytes), align: 0
  Segment part 100.           Intra module refs:   vCAST_READ_COMMAND_DATA_FOR_USER_GLOBALS
           ENTRY                   ADDRESS         REF BY
           =====                   =======         ======
           vcast_get_parameter_id_str
                                   00010E78 
               calls direct
               CSTACK = 00000000 ( 00000002 )
    -------------------------------------------------------------------------
<XCODE> 3 (was XCODE)
  Relative segment, address: 00010E86 - 00010EA0 (0x1b bytes), align: 0
  Segment part 101.           Intra module refs:   vCAST_OPEN_HARNOPTS_FILE
                                                   vCAST_READ_COMMAND_DATA
                                                   vCAST_READ_COMMAND_DATA_FOR_ONE_PARAM
           ENTRY                   ADDRESS         REF BY
           =====                   =======         ======
           vcast_get_parameter_id
                                   00010E86        vCAST_RUN_DATA_IF (B0000001)
               calls direct
               CSTACK = 00000000 ( 0000000C )
    -------------------------------------------------------------------------
<XCODE> 3 (was XCODE)
  Relative segment, address: 00010EA1 - 00010EBC (0x1c bytes), align: 0
  Segment part 103.           Intra module refs:   vCAST_OPEN_HARNOPTS_FILE
           ENTRY                   ADDRESS         REF BY
           =====                   =======         ======
           vcast_get_percent_pos   00010EA1 
               CSTACK = 00000000 ( 00000002 )
    -------------------------------------------------------------------------
<XCODE> 3 (was XCODE)
  Relative segment, address: 00010EBD - 00010F0E (0x52 bytes), align: 0
  Segment part 104.           Intra module refs:   vCAST_OPEN_HARNOPTS_FILE
                                                   vCAST_STR_TO_LONG_DOUBLE
           ENTRY                   ADDRESS         REF BY
           =====                   =======         ======
           vCAST_slice             00010EBD        vCAST_RUN_DATA_IF (B0000001)
               calls direct
               CSTACK = 00000002 ( 00000008 )
    -------------------------------------------------------------------------
<XCODE> 3 (was XCODE)
  Relative segment, address: 00010F0F - 00010F21 (0x13 bytes), align: 0
  Segment part 105.
           ENTRY                   ADDRESS         REF BY
           =====                   =======         ======
           VCAST_memcpy            00010F0F        VCAST_TI_STRING (B0000001)
               CSTACK = 00000000 ( 00000004 )
    -------------------------------------------------------------------------
<XCODE> 3 (was XCODE)
  Relative segment, address: 00010F22 - 00010F2B (0xa bytes), align: 0
  Segment part 106.           Intra module refs:   vCAST_RESET_HARNOPTS_FILE
           ENTRY                   ADDRESS         REF BY
           =====                   =======         ======
           VCAST_strncpy           00010F22 
               calls direct
               CSTACK = 00000000 ( 00000002 )
    -------------------------------------------------------------------------
<XCODE> 3 (was XCODE)
  Relative segment, address: 00010F2C - 00010F4E (0x23 bytes), align: 0
  Segment part 108.           Intra module refs:   vcast_getAVLTree
                                                   vcast_get_mcdc_statement
           ENTRY                   ADDRESS         REF BY
           =====                   =======         ======
           VCAST_malloc            00010F2C        VCAST_Add_Allocated_Data (B0000007)
                                                   VCAST_TI_9_53 (I0000009)
               calls direct
               CSTACK = 00000000 ( 00000004 )
    -------------------------------------------------------------------------
<XCODE> 3 (was XCODE)
  Relative segment, address: 00010F4F - 00011080 (0x132 bytes), align: 0
  Segment part 111.           Intra module refs:   vCAST_SET_TESTCASE_CONFIGURATION_OPTIONS
           ENTRY                   ADDRESS         REF BY
           =====                   =======         ======
           vCAST_SET_FLOAT_FORMAT
                                   00010F4F 
               calls direct
               CSTACK = 00000004 ( 00000018 )
    -------------------------------------------------------------------------
<XCODE> 3 (was XCODE)
  Relative segment, address: 00011081 - 0001116B (0xeb bytes), align: 0
  Segment part 112.           Intra module refs:   Segment part 164
                                                   vCAST_OPEN_HARNOPTS_FILE
           ENTRY                   ADDRESS         REF BY
           =====                   =======         ======
           vCAST_SET_TESTCASE_CONFIGURATION_OPTIONS
                                   00011081        vcast_B1_switch (B1_switch)
               calls direct
               CSTACK = 00000000 ( 00000006 )
    -------------------------------------------------------------------------
<XCODE> 3 (was XCODE)
  Relative segment, address: 0001116C - 000111C3 (0x58 bytes), align: 0
  Segment part 113.
           ENTRY                   ADDRESS         REF BY
           =====                   =======         ======
           vCAST_SET_TESTCASE_OPTIONS
                                   0001116C        vcast_B1_switch (B1_switch)
               calls direct
               CSTACK = 00000000 ( 0000000C )
    -------------------------------------------------------------------------
<XCODE> 3 (was XCODE)
  Relative segment, address: 000111C4 - 000111F7 (0x34 bytes), align: 0
  Segment part 114.
           ENTRY                   ADDRESS         REF BY
           =====                   =======         ======
           vCAST_power             000111C4        VCAST_TI_BITFIELD (B0000001)
               CSTACK = 00000000 ( 0000000A )
    -------------------------------------------------------------------------
<XCODE> 3 (was XCODE)
  Relative segment, address: 000111F8 - 00011218 (0x21 bytes), align: 0
  Segment part 116.           Intra module refs:   vCAST_READ_COMMAND_DATA
                                                   vCAST_READ_COMMAND_DATA_FOR_ONE_PARAM
                                                   vCAST_READ_COMMAND_DATA_FOR_USER_GLOBALS
           ENTRY                   ADDRESS         REF BY
           =====                   =======         ======
           vCAST_EXTRACT_DATA_FROM_COMMAND_LINE
                                   000111F8 
               calls direct
               CSTACK = 00000000 ( 00000006 )
    -------------------------------------------------------------------------
<XCODE> 3 (was XCODE)
  Relative segment, address: 00011219 - 000112E4 (0xcc bytes), align: 0
  Segment part 117.           Intra module refs:   vCAST_STR_TO_LONG_DOUBLE
           ENTRY                   ADDRESS         REF BY
           =====                   =======         ======
           VCAST_itod              00011219 
               CSTACK = 00000000 ( 00000014 )
    -------------------------------------------------------------------------
<XCODE> 3 (was XCODE)
  Relative segment, address: 000112E5 - 0001153E (0x25a bytes), align: 0
  Segment part 118.
           ENTRY                   ADDRESS         REF BY
           =====                   =======         ======
           vCAST_STR_TO_LONG_DOUBLE
                                   000112E5        vCAST_RUN_DATA_IF (B0000001)
               calls direct
               CSTACK = 00000000 ( 0000005E )
    -------------------------------------------------------------------------
<XCODE> 3 (was XCODE)
  Relative segment, address: 0001153F - 0001159D (0x5f bytes), align: 0
  Segment part 120.           Intra module refs:   vCAST_RESET_ITERATION_COUNTERS
           ENTRY                   ADDRESS         REF BY
           =====                   =======         ======
           vCAST_ITERATION_COUNTER_RESET
                                   0001153F        main (S0000003)
               CSTACK = 00000000 ( 0000000A )
    -------------------------------------------------------------------------
<XCODE> 3 (was XCODE)
  Relative segment, address: 0001159E - 000115AB (0xe bytes), align: 0
  Segment part 121.
           ENTRY                   ADDRESS         REF BY
           =====                   =======         ======
           vCAST_RESET_ITERATION_COUNTERS
                                   0001159E        main (S0000003)
               calls direct
               CSTACK = 00000000 ( 00000002 )
    -------------------------------------------------------------------------
<XCODE> 3 (was XCODE)
  Relative segment, address: 000115AC - 000115C4 (0x19 bytes), align: 0
  Segment part 122.           Intra module refs:   vCAST_READ_COMMAND_DATA
                                                   vCAST_READ_COMMAND_DATA_FOR_ONE_PARAM
           ENTRY                   ADDRESS         REF BY
           =====                   =======         ======
           vCAST_GET_ITERATION_COUNTER_VALUE
                                   000115AC 
               CSTACK = 00000000 ( 00000002 )
    -------------------------------------------------------------------------
<XCODE> 3 (was XCODE)
  Relative segment, address: 000115C5 - 000115FB (0x37 bytes), align: 0
  Segment part 123.           Intra module refs:   vCAST_READ_COMMAND_DATA
           ENTRY                   ADDRESS         REF BY
           =====                   =======         ======
           vCAST_INCREMENT_ITERATION_COUNTER
                                   000115C5 
               CSTACK = 00000000 ( 00000006 )
    -------------------------------------------------------------------------
<XCODE> 3 (was XCODE)
  Relative segment, address: 000115FC - 000115FC (0x1 bytes), align: 0
  Segment part 124.
           ENTRY                   ADDRESS         REF BY
           =====                   =======         ======
           vCAST_EXECUTE_RANGE_COMMANDS
                                   000115FC        main (S0000003)
    -------------------------------------------------------------------------
<XCODE> 3 (was XCODE)
  Relative segment, address: 000115FD - 000115FD (0x1 bytes), align: 0
  Segment part 127.
           ENTRY                   ADDRESS         REF BY
           =====                   =======         ======
           vCAST_FREE_RANGE_VALUES
                                   000115FD        main (S0000003)
    -------------------------------------------------------------------------
<XCODE> 3 (was XCODE)
  Relative segment, address: 000115FE - 00011630 (0x33 bytes), align: 0
  Segment part 128.           Intra module refs:   vCAST_READ_COMMAND_DATA
           ENTRY                   ADDRESS         REF BY
           =====                   =======         ======
           vCAST_isUUTorGlobal     000115FE 
               calls direct
               CSTACK = 00000000 ( 00000004 )
    -------------------------------------------------------------------------
<XCODE> 3 (was XCODE)
  Relative segment, address: 00011631 - 00011631 (0x1 bytes), align: 0
  Segment part 129.
           ENTRY                   ADDRESS         REF BY
           =====                   =======         ======
           vCAST_RESET_LIST_VALUES
                                   00011631        main (S0000003)
    -------------------------------------------------------------------------
<XCODE> 3 (was XCODE)
  Relative segment, address: 00011632 - 00011632 (0x1 bytes), align: 0
  Segment part 130.
           ENTRY                   ADDRESS         REF BY
           =====                   =======         ======
           vCAST_RESET_RANGE_VALUES
                                   00011632        main (S0000003)
    -------------------------------------------------------------------------
<XCODE> 3 (was XCODE)
  Relative segment, address: 00011633 - 00011633 (0x1 bytes), align: 0
  Segment part 131.
           ENTRY                   ADDRESS         REF BY
           =====                   =======         ======
           vCAST_INITIALIZE_RANGE_VALUES
                                   00011633        main (S0000003)
    -------------------------------------------------------------------------
<XCODE> 3 (was XCODE)
  Relative segment, address: 00011634 - 00011641 (0xe bytes), align: 0
  Segment part 132.
           ENTRY                   ADDRESS         REF BY
           =====                   =======         ======
           vCAST_SET_HISTORY       00011634        vCAST_COMMON_STUB_PROC_9 (I0000009)
               calls direct
               CSTACK = 00000000 ( 00000004 )
    -------------------------------------------------------------------------
<XCODE> 3 (was XCODE)
  Relative segment, address: 00011642 - 000117BD (0x17c bytes), align: 0
  Segment part 133.           Intra module refs:   vCAST_SET_HISTORY
           ENTRY                   ADDRESS         REF BY
           =====                   =======         ======
           vCAST_SET_HISTORY_FLAGS
                                   00011642        VCAST_DRIVER_9 (I0000009)
                                                   main (S0000003)
               calls direct
               CSTACK = 00000002 ( 00000006 )
    -------------------------------------------------------------------------
<XCODE> 3 (was XCODE)
  Relative segment, address: 000117BE - 000117D0 (0x13 bytes), align: 0
  Segment part 134.           Intra module refs:   VCAST_SLOT_SEPARATOR
           ENTRY                   ADDRESS         REF BY
           =====                   =======         ======
           VCAST_WRITE_TO_INST_FILE
                                   000117BE        main (S0000003)
               calls direct
               CSTACK = 00000000 ( 00000004 )
    -------------------------------------------------------------------------
<XCODE> 3 (was XCODE)
  Relative segment, address: 000117D1 - 000117D7 (0x7 bytes), align: 0
  Segment part 135.
           ENTRY                   ADDRESS         REF BY
           =====                   =======         ======
           vCAST_SET_OUTPUT_TO_EVENT_FILE
                                   000117D1        main (S0000003)
    -------------------------------------------------------------------------
<XCODE> 3 (was XCODE)
  Relative segment, address: 000117D8 - 000117E0 (0x9 bytes), align: 0
  Segment part 136.
           ENTRY                   ADDRESS         REF BY
           =====                   =======         ======
           vCAST_WRITE_END_FILE    000117D8        VCAST_driver_termination (S0000003)
               calls direct
    -------------------------------------------------------------------------
<XCODE> 3 (was XCODE)
  Relative segment, address: 000117E1 - 00011810 (0x30 bytes), align: 0
  Segment part 137.
           ENTRY                   ADDRESS         REF BY
           =====                   =======         ======
           vCAST_RESET_HARNOPTS_FILE
                                   000117E1        main (S0000003)
               calls direct
               CSTACK = 00000000 ( 00000004 )
    -------------------------------------------------------------------------
<XCODE> 3 (was XCODE)
  Relative segment, address: 00011811 - 000118D3 (0xc3 bytes), align: 0
  Segment part 138.
           ENTRY                   ADDRESS         REF BY
           =====                   =======         ======
           vCAST_OPEN_HARNOPTS_FILE
                                   00011811        main (S0000003)
               calls direct
               CSTACK = 00000000 ( 00000058 )
    -------------------------------------------------------------------------
<XCODE> 3 (was XCODE)
  Relative segment, address: 000118D4 - 00011924 (0x51 bytes), align: 0
  Segment part 139.
           ENTRY                   ADDRESS         REF BY
           =====                   =======         ======
           vCAST_OPEN_TESTORDR_FILE
                                   000118D4        main (S0000003)
               calls direct
               CSTACK = 00000000 ( 00000044 )
    -------------------------------------------------------------------------
<XCODE> 3 (was XCODE)
  Relative segment, address: 00011925 - 00011928 (0x4 bytes), align: 0
  Segment part 140.
           ENTRY                   ADDRESS         REF BY
           =====                   =======         ======
           vCAST_ORDER             00011925        main (S0000003)
    -------------------------------------------------------------------------
<XCODE> 3 (was XCODE)
  Relative segment, address: 00011929 - 00011973 (0x4b bytes), align: 0
  Segment part 141.           Intra module refs:   vCAST_READ_NEXT_ORDER
           ENTRY                   ADDRESS         REF BY
           =====                   =======         ======
           VCAST_READ_TESTORDR_LINE
                                   00011929 
               calls direct
               CSTACK = 00000000 ( 00000048 )
    -------------------------------------------------------------------------
<XCODE> 3 (was XCODE)
  Relative segment, address: 00011974 - 000119CD (0x5a bytes), align: 0
  Segment part 142.
           ENTRY                   ADDRESS         REF BY
           =====                   =======         ======
           vCAST_READ_NEXT_ORDER   00011974        main (S0000003)
               calls direct
               CSTACK = 00000000 ( 00000042 )
    -------------------------------------------------------------------------
<XCODE> 3 (was XCODE)
  Relative segment, address: 000119CE - 00011A89 (0xbc bytes), align: 0
  Segment part 143.
           ENTRY                   ADDRESS         REF BY
           =====                   =======         ======
           vCAST_READ_COMMAND_DATA_FOR_ONE_PARAM
                                   000119CE        vCAST_COMMON_STUB_PROC_9 (I0000009)
               calls direct
               CSTACK = 00000000 ( 00000098 )
    -------------------------------------------------------------------------
<XCODE> 3 (was XCODE)
  Relative segment, address: 00011A8A - 00011A8B (0x2 bytes), align: 0
  Segment part 144.           Intra module refs:   vCAST_READ_COMMAND_DATA
           ENTRY                   ADDRESS         REF BY
           =====                   =======         ======
           NOTvcastIsSBFObject     00011A8A 
    -------------------------------------------------------------------------
<XCODE> 3 (was XCODE)
  Relative segment, address: 00011A8C - 00011BAE (0x123 bytes), align: 0
  Segment part 145.
           ENTRY                   ADDRESS         REF BY
           =====                   =======         ======
           vCAST_READ_COMMAND_DATA
                                   00011A8C        main (S0000003)
                                                   vCAST_COMMON_STUB_PROC_9 (I0000009)
               calls direct
               CSTACK = 00000004 ( 0000009C )
    -------------------------------------------------------------------------
<XCODE> 3 (was XCODE)
  Relative segment, address: 00011BAF - 00011BFC (0x4e bytes), align: 0
  Segment part 146.           Intra module refs:   vCAST_STORE_ASCII_DATA
           ENTRY                   ADDRESS         REF BY
           =====                   =======         ======
           vCAST_SHOULD_DISPLAY_GLOBALS
                                   00011BAF 
               CSTACK = 00000000 ( 00000002 )
    -------------------------------------------------------------------------
<XCODE> 3 (was XCODE)
  Relative segment, address: 00011BFD - 00011C67 (0x6b bytes), align: 0
  Segment part 147.           Intra module refs:   vCAST_STORE_ASCII_DATA
           ENTRY                   ADDRESS         REF BY
           =====                   =======         ======
           vCAST_STORE_PARAMETER_ASCII_DATA
                                   00011BFD 
               calls direct
               CSTACK = 00000000 ( 00000046 )
    -------------------------------------------------------------------------
<XCODE> 3 (was XCODE)
  Relative segment, address: 00011C68 - 00011CBF (0x58 bytes), align: 0
  Segment part 148.           Intra module refs:   vCAST_SET_HISTORY_FLAGS
                                                   vCAST_STORE_ASCII_DATA
           ENTRY                   ADDRESS         REF BY
           =====                   =======         ======
           vCAST_STORE_GLOBAL_ASCII_DATA
                                   00011C68        VCAST_driver_termination (S0000003)
               calls direct
               CSTACK = 00000000 ( 00000042 )
    -------------------------------------------------------------------------
<XCODE> 3 (was XCODE)
  Relative segment, address: 00011CC0 - 00011CFA (0x3b bytes), align: 0
  Segment part 149.           Intra module refs:   vCAST_SET_HISTORY_FLAGS
           ENTRY                   ADDRESS         REF BY
           =====                   =======         ======
           vCAST_STORE_ASCII_DATA
                                   00011CC0 
               calls direct
               CSTACK = 00000000 ( 00000002 )
    -------------------------------------------------------------------------
<XCODE> 3 (was XCODE)
  Relative segment, address: 00011CFB - 00011DE3 (0xe9 bytes), align: 0
  Segment part 150.
           ENTRY                   ADDRESS         REF BY
           =====                   =======         ======
           vCAST_READ_COMMAND_DATA_FOR_USER_GLOBALS
                                   00011CFB        vCAST_COMMON_STUB_PROC_9 (I0000009)
               calls direct
               CSTACK = 00000000 ( 000000A0 )
    -------------------------------------------------------------------------
<XCODE> 3 (was XCODE)
  Relative segment, address: 00011DE4 - 00011E51 (0x6e bytes), align: 0
  Segment part 151.           Intra module refs:   vCAST_STORE_GLOBAL_ASCII_DATA
                                                   vCAST_STORE_PARAMETER_ASCII_DATA
           ENTRY                   ADDRESS         REF BY
           =====                   =======         ======
           vCAST_OPEN_E0_FILE      00011DE4        main (S0000003)
               calls direct
               CSTACK = 00000000 ( 00000020 )
    -------------------------------------------------------------------------
<XCODE> 3 (was XCODE)
  Relative segment, address: 00011E52 - 00011E6D (0x1c bytes), align: 0
  Segment part 152.
           ENTRY                   ADDRESS         REF BY
           =====                   =======         ======
           vCAST_CREATE_EVENT_FILE
                                   00011E52        main (S0000003)
               calls direct
               CSTACK = 00000000 ( 00000002 )
    -------------------------------------------------------------------------
<XCODE> 3 (was XCODE)
  Relative segment, address: 00011E6E - 00011E78 (0xb bytes), align: 0
  Segment part 153.
           ENTRY                   ADDRESS         REF BY
           =====                   =======         ======
           vCAST_CLOSE_EVENT_FILE
                                   00011E6E        VCAST_driver_termination (S0000003)
               calls direct
    -------------------------------------------------------------------------
<XCODE> 3 (was XCODE)
  Relative segment, address: 00011E79 - 00011E95 (0x1d bytes), align: 0
  Segment part 154.           Intra module refs:   VCAST_WRITE_FN_CALL_ID
                                                   VCAST_WRITE_MCDC_ID
                                                   VCAST_WRITE_OPTIMIZED_MCDC_ID
                                                   VCAST_WRITE_STATEMENT_ID
                                                   VCAST_WRITE_TO_INST_FILE
                                                   vcast_fatal_error
           ENTRY                   ADDRESS         REF BY
           =====                   =======         ======
           vCAST_CREATE_INST_FILE
                                   00011E79        main (S0000003)
               calls direct
               CSTACK = 00000000 ( 00000002 )
    -------------------------------------------------------------------------
<XCODE> 3 (was XCODE)
  Relative segment, address: 00011E96 - 00011EA5 (0x10 bytes), align: 0
  Segment part 155.
           ENTRY                   ADDRESS         REF BY
           =====                   =======         ======
           vCAST_CLOSE_INST_FILE   00011E96        VCAST_driver_termination (S0000003)
               calls direct
    -------------------------------------------------------------------------
<XCODE> 3 (was XCODE)
  Relative segment, address: 00011EA6 - 00011EC2 (0x1d bytes), align: 0
  Segment part 156.
           ENTRY                   ADDRESS         REF BY
           =====                   =======         ======
           vCAST_CREATE_HIST_FILE
                                   00011EA6        main (S0000003)
               calls direct
               CSTACK = 00000000 ( 00000002 )
    -------------------------------------------------------------------------
<XCODE> 3 (was XCODE)
  Relative segment, address: 00011EC3 - 00011ED2 (0x10 bytes), align: 0
  Segment part 157.
           ENTRY                   ADDRESS         REF BY
           =====                   =======         ======
           vCAST_CLOSE_HIST_FILE   00011EC3        VCAST_driver_termination (S0000003)
               calls direct
    -------------------------------------------------------------------------
<XCODE> 3 (was XCODE)
  Relative segment, address: 00011ED3 - 00011EEF (0x1d bytes), align: 0
  Segment part 158.           Intra module refs:   VCAST_SLOT_SEPARATOR
                                                   vCAST_SET_HISTORY_FLAGS
           ENTRY                   ADDRESS         REF BY
           =====                   =======         ======
           vCAST_RE_OPEN_HIST_FILE
                                   00011ED3        VCAST_driver_termination (S0000003)
               calls direct
               CSTACK = 00000000 ( 00000002 )
    -------------------------------------------------------------------------
<XCODE> 3 (was XCODE)
  Relative segment, address: 00011EF0 - 00011EFF (0x10 bytes), align: 0
  Segment part 159.           Intra module refs:   VCAST_SLOT_SEPARATOR
                                                   vCAST_SET_HISTORY_FLAGS
           ENTRY                   ADDRESS         REF BY
           =====                   =======         ======
           vCAST_CLOSE_HIST_FILE_FOR_EVENT
                                   00011EF0 
               calls direct
    -------------------------------------------------------------------------
<XCODE> 3 (was XCODE)
  Relative segment, address: 00011F00 - 00011F57 (0x58 bytes), align: 0
  Segment part 161.
           ENTRY                   ADDRESS         REF BY
           =====                   =======         ======
           VCAST_SLOT_SEPARATOR    00011F00        main (S0000003)
               calls direct
               CSTACK = 00000000 ( 00000004 )
    -------------------------------------------------------------------------
<XCODE> 3 (was XCODE)
  Relative segment, address: 00011F58 - 00011F74 (0x1d bytes), align: 0
  Segment part 162.
           ENTRY                   ADDRESS         REF BY
           =====                   =======         ======
           vcastInitializeB2Data   00011F58        main (S0000003)
    -------------------------------------------------------------------------
<FSWITCH> 1 (was FSWITCH)
  Relative segment, address: 00001026 - 00001047 (0x22 bytes), align: 1
  Segment part 164.           Intra module refs:   vCAST_SET_TESTCASE_CONFIGURATION_OPTIONS
    -------------------------------------------------------------------------
NEAR_CONST
  Relative segment, address: 000F30F0 - 000F30F1 (0x2 bytes), align: 1
  Segment part 2.             Intra module refs:   VCAST_WRITE_FN_CALL_ID
                                                   VCAST_WRITE_MCDC_ID
                                                   VCAST_WRITE_OPTIMIZED_MCDC_ID
                                                   VCAST_WRITE_STATEMENT_ID
                                                   vCAST_SET_HISTORY_FLAGS
    -------------------------------------------------------------------------
NEAR_CONST
  Relative segment, address: 000F30F2 - 000F30F5 (0x4 bytes), align: 1
  Segment part 3.             Intra module refs:   VCAST_WRITE_FN_CALL_ID
    -------------------------------------------------------------------------
NEAR_CONST
  Relative segment, address: 000F30F6 - 000F30F7 (0x2 bytes), align: 1
  Segment part 4.             Intra module refs:   VCAST_WRITE_MCDC_ID
    -------------------------------------------------------------------------
NEAR_CONST
  Relative segment, address: 000F30F8 - 000F311B (0x24 bytes), align: 1
  Segment part 5.             Intra module refs:   vcast_insert
    -------------------------------------------------------------------------
NEAR_CONST
  Relative segment, address: 000F311C - 000F312D (0x12 bytes), align: 1
  Segment part 6.             Intra module refs:   VCAST_malloc
    -------------------------------------------------------------------------
NEAR_CONST
  Relative segment, address: 000F312E - 000F312F (0x2 bytes), align: 1
  Segment part 7.             Intra module refs:   vCAST_SET_FLOAT_FORMAT
    -------------------------------------------------------------------------
NEAR_CONST
  Relative segment, address: 000F3130 - 000F3133 (0x4 bytes), align: 1
  Segment part 8.             Intra module refs:   vCAST_SET_FLOAT_FORMAT
    -------------------------------------------------------------------------
NEAR_CONST
  Relative segment, address: 000F3134 - 000F3135 (0x2 bytes), align: 1
  Segment part 9.             Intra module refs:   vCAST_SET_FLOAT_FORMAT
    -------------------------------------------------------------------------
NEAR_CONST
  Relative segment, address: 000F3136 - 000F3139 (0x4 bytes), align: 1
  Segment part 10.            Intra module refs:   vCAST_SET_TESTCASE_OPTIONS
    -------------------------------------------------------------------------
NEAR_CONST
  Relative segment, address: 000F313A - 000F313B (0x2 bytes), align: 1
  Segment part 12.            Intra module refs:   vCAST_SET_HISTORY
                                                   vCAST_SET_HISTORY_FLAGS
    -------------------------------------------------------------------------
NEAR_CONST
  Relative segment, address: 000F313C - 000F313D (0x2 bytes), align: 1
  Segment part 13.            Intra module refs:   vCAST_SET_HISTORY_FLAGS
    -------------------------------------------------------------------------
NEAR_CONST
  Relative segment, address: 000F313E - 000F3141 (0x4 bytes), align: 1
  Segment part 14.            Intra module refs:   vCAST_SET_HISTORY_FLAGS
    -------------------------------------------------------------------------
NEAR_CONST
  Relative segment, address: 000F3142 - 000F314B (0xa bytes), align: 1
  Segment part 15.            Intra module refs:   vCAST_SET_HISTORY_FLAGS
    -------------------------------------------------------------------------
NEAR_CONST
  Relative segment, address: 000F314C - 000F3155 (0xa bytes), align: 1
  Segment part 16.            Intra module refs:   vCAST_SET_HISTORY_FLAGS
    -------------------------------------------------------------------------
NEAR_CONST
  Relative segment, address: 000F3156 - 000F315B (0x6 bytes), align: 1
  Segment part 17.            Intra module refs:   vCAST_SET_HISTORY_FLAGS
    -------------------------------------------------------------------------
NEAR_CONST
  Relative segment, address: 000F315C - 000F3169 (0xe bytes), align: 1
  Segment part 18.            Intra module refs:   vCAST_OPEN_HARNOPTS_FILE
    -------------------------------------------------------------------------
NEAR_CONST
  Relative segment, address: 000F316A - 000F316B (0x2 bytes), align: 1
  Segment part 19.            Intra module refs:   vCAST_OPEN_E0_FILE
                                                   vCAST_OPEN_HARNOPTS_FILE
                                                   vCAST_OPEN_TESTORDR_FILE
                                                   vCAST_READ_COMMAND_DATA
                                                   vCAST_READ_COMMAND_DATA_FOR_ONE_PARAM
                                                   vCAST_READ_COMMAND_DATA_FOR_USER_GLOBALS
    -------------------------------------------------------------------------
NEAR_CONST
  Relative segment, address: 000F316C - 000F3179 (0xe bytes), align: 1
  Segment part 20.            Intra module refs:   vCAST_OPEN_TESTORDR_FILE
    -------------------------------------------------------------------------
NEAR_CONST
  Relative segment, address: 000F317A - 000F3187 (0xe bytes), align: 1
  Segment part 21.            Intra module refs:   vCAST_READ_COMMAND_DATA
    -------------------------------------------------------------------------
NEAR_CONST
  Relative segment, address: 000F3188 - 000F3195 (0xe bytes), align: 1
  Segment part 22.            Intra module refs:   vCAST_OPEN_E0_FILE
    -------------------------------------------------------------------------
NEAR_CONST
  Relative segment, address: 000F3196 - 000F3197 (0x2 bytes), align: 1
  Segment part 23.            Intra module refs:   vCAST_CREATE_EVENT_FILE
                                                   vCAST_CREATE_HIST_FILE
    -------------------------------------------------------------------------
NEAR_CONST
  Relative segment, address: 000F3198 - 000F3199 (0x2 bytes), align: 1
  Segment part 24.            Intra module refs:   vCAST_CREATE_INST_FILE
                                                   vCAST_RE_OPEN_HIST_FILE
    -------------------------------------------------------------------------
NEAR_CONST
  Relative segment, address: 000F319A - 000F31A3 (0xa bytes), align: 1
  Segment part 30.            Intra module refs:   VCAST_SLOT_SEPARATOR
    -------------------------------------------------------------------------
NEAR_CONST
  Relative segment, address: 000F31A4 - 000F31B7 (0x14 bytes), align: 1
  Segment part 31.            Intra module refs:   VCAST_SLOT_SEPARATOR
    -------------------------------------------------------------------------
NEAR_CONST
  Relative segment, address: 000F31B8 - 000F31BF (0x8 bytes), align: 1
  Segment part 32.            Intra module refs:   VCAST_SLOT_SEPARATOR
    -------------------------------------------------------------------------
NEAR_CONST_ID
  Relative segment, address: 0000308C - 000030EF (0x64 bytes), align: 1
  Segment part 165.           Intra module refs:   vcast_unit_list_values
    -------------------------------------------------------------------------
NEAR_CONST_ID
  Relative segment, address: 000030F0 - 000030F1 (0x2 bytes), align: 1
  Segment part 166.           Intra module refs:   Segment part 2
    -------------------------------------------------------------------------
NEAR_CONST_ID
  Relative segment, address: 000030F2 - 000030F5 (0x4 bytes), align: 1
  Segment part 167.           Intra module refs:   Segment part 3
    -------------------------------------------------------------------------
NEAR_CONST_ID
  Relative segment, address: 000030F6 - 000030F7 (0x2 bytes), align: 1
  Segment part 168.           Intra module refs:   Segment part 4
    -------------------------------------------------------------------------
NEAR_CONST_ID
  Relative segment, address: 000030F8 - 0000311B (0x24 bytes), align: 1
  Segment part 169.           Intra module refs:   Segment part 5
    -------------------------------------------------------------------------
NEAR_CONST_ID
  Relative segment, address: 0000311C - 0000312D (0x12 bytes), align: 1
  Segment part 170.           Intra module refs:   Segment part 6
    -------------------------------------------------------------------------
NEAR_CONST_ID
  Relative segment, address: 0000312E - 0000312F (0x2 bytes), align: 1
  Segment part 171.           Intra module refs:   Segment part 7
    -------------------------------------------------------------------------
NEAR_CONST_ID
  Relative segment, address: 00003130 - 00003133 (0x4 bytes), align: 1
  Segment part 172.           Intra module refs:   Segment part 8
    -------------------------------------------------------------------------
NEAR_CONST_ID
  Relative segment, address: 00003134 - 00003135 (0x2 bytes), align: 1
  Segment part 173.           Intra module refs:   Segment part 9
    -------------------------------------------------------------------------
NEAR_CONST_ID
  Relative segment, address: 00003136 - 00003139 (0x4 bytes), align: 1
  Segment part 174.           Intra module refs:   Segment part 10
    -------------------------------------------------------------------------
NEAR_CONST_ID
  Relative segment, address: 0000313A - 0000313B (0x2 bytes), align: 1
  Segment part 176.           Intra module refs:   Segment part 12
    -------------------------------------------------------------------------
NEAR_CONST_ID
  Relative segment, address: 0000313C - 0000313D (0x2 bytes), align: 1
  Segment part 177.           Intra module refs:   Segment part 13
    -------------------------------------------------------------------------
NEAR_CONST_ID
  Relative segment, address: 0000313E - 00003141 (0x4 bytes), align: 1
  Segment part 178.           Intra module refs:   Segment part 14
    -------------------------------------------------------------------------
NEAR_CONST_ID
  Relative segment, address: 00003142 - 0000314B (0xa bytes), align: 1
  Segment part 179.           Intra module refs:   Segment part 15
    -------------------------------------------------------------------------
NEAR_CONST_ID
  Relative segment, address: 0000314C - 00003155 (0xa bytes), align: 1
  Segment part 180.           Intra module refs:   Segment part 16
    -------------------------------------------------------------------------
NEAR_CONST_ID
  Relative segment, address: 00003156 - 0000315B (0x6 bytes), align: 1
  Segment part 181.           Intra module refs:   Segment part 17
    -------------------------------------------------------------------------
NEAR_CONST_ID
  Relative segment, address: 0000315C - 00003169 (0xe bytes), align: 1
  Segment part 182.           Intra module refs:   Segment part 18
    -------------------------------------------------------------------------
NEAR_CONST_ID
  Relative segment, address: 0000316A - 0000316B (0x2 bytes), align: 1
  Segment part 183.           Intra module refs:   Segment part 19
    -------------------------------------------------------------------------
NEAR_CONST_ID
  Relative segment, address: 0000316C - 00003179 (0xe bytes), align: 1
  Segment part 184.           Intra module refs:   Segment part 20
    -------------------------------------------------------------------------
NEAR_CONST_ID
  Relative segment, address: 0000317A - 00003187 (0xe bytes), align: 1
  Segment part 185.           Intra module refs:   Segment part 21
    -------------------------------------------------------------------------
NEAR_CONST_ID
  Relative segment, address: 00003188 - 00003195 (0xe bytes), align: 1
  Segment part 186.           Intra module refs:   Segment part 22
    -------------------------------------------------------------------------
NEAR_CONST_ID
  Relative segment, address: 00003196 - 00003197 (0x2 bytes), align: 1
  Segment part 187.           Intra module refs:   Segment part 23
    -------------------------------------------------------------------------
NEAR_CONST_ID
  Relative segment, address: 00003198 - 00003199 (0x2 bytes), align: 1
  Segment part 188.           Intra module refs:   Segment part 24
    -------------------------------------------------------------------------
NEAR_CONST_ID
  Relative segment, address: 0000319A - 000031A3 (0xa bytes), align: 1
  Segment part 194.           Intra module refs:   Segment part 30
    -------------------------------------------------------------------------
NEAR_CONST_ID
  Relative segment, address: 000031A4 - 000031B7 (0x14 bytes), align: 1
  Segment part 195.           Intra module refs:   Segment part 31
    -------------------------------------------------------------------------
NEAR_CONST_ID
  Relative segment, address: 000031B8 - 000031BF (0x8 bytes), align: 1
  Segment part 196.           Intra module refs:   Segment part 32

    *************************************************************************

  FILE NAME : C:\Users\zhu1\Downloads\SW_Need_Change_Managemant\GEEA2.0\E4-2_SW\RLS_SYS_RLS_GP_RLXS_GEN5_DEV_APL_GEELY2.0_RLFS_FOR_E4_03\05_SwDev\01_SrcCode\Application\CustomerInterface\ModuleTest\1234\S0000003.r87
  PROGRAM MODULE, NAME : S0000003

  SEGMENTS IN THE MODULE
  ======================
NEAR_Z
  Relative segment, address: 000FB1F0 - 000FB2FD (0x10e bytes), align: 1
  Segment part 13.
           ENTRY                   ADDRESS         REF BY
           =====                   =======         ======
           vCAST_ITERATION_COUNTERS
                                   000FB1F0        vCAST_GET_ITERATION_COUNTER_VALUE (B0000002)
                                                   vCAST_INCREMENT_ITERATION_COUNTER (B0000002)
                                                   vCAST_ITERATION_COUNTER_RESET (B0000002)
    -------------------------------------------------------------------------
NEAR_Z
  Relative segment, address: 000FB2FE - 000FB303 (0x6 bytes), align: 1
  Segment part 14.
           ENTRY                   ADDRESS         REF BY
           =====                   =======         ======
           vCAST_GLOBALS_TOUCHED   000FB2FE        vCAST_READ_COMMAND_DATA_FOR_USER_GLOBALS (B0000002)
    -------------------------------------------------------------------------
NEAR_Z
  Relative segment, address: 000FB304 - 000FB30D (0xa bytes), align: 1
  Segment part 15.
           ENTRY                   ADDRESS         REF BY
           =====                   =======         ======
           VCAST_env               000FB304        VCAST_TI_9_1 (I0000009)
                                                   VCAST_TI_9_10 (I0000009)
                                                   VCAST_TI_9_12 (I0000009)
                                                   VCAST_TI_9_14 (I0000009)
                                                   VCAST_TI_9_16 (I0000009)
                                                   VCAST_TI_9_18 (I0000009)
                                                   VCAST_TI_9_20 (I0000009)
                                                   VCAST_TI_9_23 (I0000009)
                                                   VCAST_TI_9_24 (I0000009)
                                                   VCAST_TI_9_26 (I0000009)
                                                   VCAST_TI_9_28 (I0000009)
                                                   VCAST_TI_9_30 (I0000009)
                                                   VCAST_TI_9_33 (I0000009)
                                                   VCAST_TI_9_35 (I0000009)
                                                   VCAST_TI_9_4 (I0000009)
                                                   VCAST_TI_9_40 (I0000009)
                                                   VCAST_TI_9_42 (I0000009)
                                                   VCAST_TI_9_44 (I0000009)
                                                   VCAST_TI_9_7 (I0000009)
    -------------------------------------------------------------------------
NEAR_Z
  Relative segment, address: 000FB30E - 000FB3DD (0xd0 bytes), align: 1
  Segment part 16.
           ENTRY                   ADDRESS         REF BY
           =====                   =======         ======
           vCAST_ORDER_OBJECT      000FB30E        vCAST_ORDER (B0000002)
                                                   vCAST_READ_COMMAND_DATA (B0000002)
                                                   vCAST_READ_COMMAND_DATA_FOR_ONE_PARAM (B0000002)
                                                   vCAST_READ_COMMAND_DATA_FOR_USER_GLOBALS (B0000002)
                                                   vCAST_READ_NEXT_ORDER (B0000002)
                                                   vCAST_SET_HISTORY_FLAGS (B0000002)
                                                   vCAST_STORE_ASCII_DATA (B0000002)
    -------------------------------------------------------------------------
NEAR_I
  Relative segment, address: 000FAF02 - 000FAF03 (0x2 bytes), align: 1
  Segment part 17.            Intra module refs:   main
                                                   vcastInitializeS2Data
           ENTRY                   ADDRESS         REF BY
           =====                   =======         ======
           vCAST_UNIT              000FAF02        vCAST_isUUTorGlobal (B0000002)
                                                   vcast_B1_switch (B1_switch)
    -------------------------------------------------------------------------
NEAR_I
  Relative segment, address: 000FAF04 - 000FAF05 (0x2 bytes), align: 1
  Segment part 19.            Intra module refs:   main
                                                   vcastInitializeS2Data
           ENTRY                   ADDRESS         REF BY
           =====                   =======         ======
           vCAST_SUBPROGRAM        000FAF04        vcast_B1_switch (B1_switch)
    -------------------------------------------------------------------------
NEAR_Z
  Relative segment, address: 000FB3DE - 000FB3DF (0x2 bytes), align: 1
  Segment part 21.            Intra module refs:   main
           ENTRY                   ADDRESS         REF BY
           =====                   =======         ======
           vCAST_CURRENT_SLOT      000FB3DE        vCAST_COMMON_STUB_PROC_9 (I0000009)
                                                   vCAST_OPEN_E0_FILE (B0000002)
    -------------------------------------------------------------------------
NEAR_Z
  Relative segment, address: 000FB3E0 - 000FB3E1 (0x2 bytes), align: 1
  Segment part 22.            Intra module refs:   main
           ENTRY                   ADDRESS         REF BY
           =====                   =======         ======
           vCAST_CURRENT_ITERATION
                                   000FB3E0 
    -------------------------------------------------------------------------
NEAR_I
  Relative segment, address: 000FAF06 - 000FAF07 (0x2 bytes), align: 1
  Segment part 23.            Intra module refs:   vcastInitializeS2Data
           ENTRY                   ADDRESS         REF BY
           =====                   =======         ======
           vCAST_HIST_INDEX        000FAF06        vCAST_SET_HISTORY_FLAGS (B0000002)
    -------------------------------------------------------------------------
NEAR_I
  Relative segment, address: 000FAF08 - 000FAF09 (0x2 bytes), align: 1
  Segment part 25.            Intra module refs:   main
           ENTRY                   ADDRESS         REF BY
           =====                   =======         ======
           vCAST_HIST_LIMIT        000FAF08        vCAST_SET_HISTORY_FLAGS (B0000002)
                                                   vCAST_SET_TESTCASE_CONFIGURATION_OPTIONS (B0000002)
    -------------------------------------------------------------------------
NEAR_I
  Relative segment, address: 000FAF0A - 000FAF0B (0x2 bytes), align: 1
  Segment part 27.            Intra module refs:   main
           ENTRY                   ADDRESS         REF BY
           =====                   =======         ======
           vCAST_ENV_HIST_LIMIT    000FAF0A        vCAST_OPEN_TESTORDR_FILE (B0000002)
    -------------------------------------------------------------------------
NEAR_Z
  Relative segment, address: 000FB3E2 - 000FB421 (0x40 bytes), align: 1
  Segment part 29.            Intra module refs:   main
           ENTRY                   ADDRESS         REF BY
           =====                   =======         ======
           vCAST_TEST_NAME         000FB3E2        vCAST_READ_COMMAND_DATA (B0000002)
                                                   vCAST_READ_COMMAND_DATA_FOR_ONE_PARAM (B0000002)
                                                   vCAST_READ_COMMAND_DATA_FOR_USER_GLOBALS (B0000002)
    -------------------------------------------------------------------------
NEAR_I
  Relative segment, address: 000FAF0C - 000FAF0F (0x4 bytes), align: 1
  Segment part 30.            Intra module refs:   main
           ENTRY                   ADDRESS         REF BY
           =====                   =======         ======
           vCAST_PARTITIONS        000FAF0C        vCAST_SET_TESTCASE_CONFIGURATION_OPTIONS (B0000002)
                                                   vcastInitializeB2Data (B0000002)
    -------------------------------------------------------------------------
NEAR_Z
  Relative segment, address: 000FB422 - 000FB431 (0x10 bytes), align: 1
  Segment part 32.
           ENTRY                   ADDRESS         REF BY
           =====                   =======         ======
           vCAST_TESTCASE_OPTIONS
                                   000FB422        vCAST_RESET_ITERATION_COUNTERS (B0000002)
                                                   vCAST_SET_TESTCASE_CONFIGURATION_OPTIONS (B0000002)
                                                   vCAST_SET_TESTCASE_OPTIONS (B0000002)
    -------------------------------------------------------------------------
NEAR_Z
  Relative segment, address: 000FB432 - 000FB433 (0x2 bytes), align: 1
  Segment part 33.            Intra module refs:   main
           ENTRY                   ADDRESS         REF BY
           =====                   =======         ======
           vCAST_INST_FILE         000FB432        VCAST_WRITE_FN_CALL_ID (B0000002)
                                                   VCAST_WRITE_MCDC_ID (B0000002)
                                                   VCAST_WRITE_OPTIMIZED_MCDC_ID (B0000002)
                                                   VCAST_WRITE_STATEMENT_ID (B0000002)
                                                   VCAST_WRITE_TO_INST_FILE (B0000002)
                                                   vCAST_CLOSE_INST_FILE (B0000002)
                                                   vCAST_CREATE_INST_FILE (B0000002)
                                                   vcast_fatal_error (B0000002)
    -------------------------------------------------------------------------
NEAR_Z
  Relative segment, address: 000FB434 - 000FB435 (0x2 bytes), align: 1
  Segment part 34.
           ENTRY                   ADDRESS         REF BY
           =====                   =======         ======
           vCAST_EVENT_FILE        000FB434        vCAST_CLOSE_EVENT_FILE (B0000002)
                                                   vCAST_CREATE_EVENT_FILE (B0000002)
                                                   vCAST_SET_OUTPUT_TO_EVENT_FILE (B0000002)
                                                   vCAST_STORE_PARAMETER_ASCII_DATA (B0000002)
    -------------------------------------------------------------------------
NEAR_Z
  Relative segment, address: 000FB436 - 000FB437 (0x2 bytes), align: 1
  Segment part 35.            Intra module refs:   VCAST_driver_termination
           ENTRY                   ADDRESS         REF BY
           =====                   =======         ======
           vCAST_HIST_FILE         000FB436        VCAST_SLOT_SEPARATOR (B0000002)
                                                   vCAST_CLOSE_HIST_FILE (B0000002)
                                                   vCAST_CLOSE_HIST_FILE_FOR_EVENT (B0000002)
                                                   vCAST_CREATE_HIST_FILE (B0000002)
                                                   vCAST_RE_OPEN_HIST_FILE (B0000002)
                                                   vCAST_SET_HISTORY_FLAGS (B0000002)
    -------------------------------------------------------------------------
NEAR_Z
  Relative segment, address: 000FB438 - 000FB439 (0x2 bytes), align: 1
  Segment part 36.            Intra module refs:   VCAST_driver_termination
           ENTRY                   ADDRESS         REF BY
           =====                   =======         ======
           vCAST_ORDER_FILE        000FB438        VCAST_READ_TESTORDR_LINE (B0000002)
                                                   vCAST_OPEN_TESTORDR_FILE (B0000002)
                                                   vCAST_READ_NEXT_ORDER (B0000002)
    -------------------------------------------------------------------------
NEAR_Z
  Relative segment, address: 000FB43A - 000FB43B (0x2 bytes), align: 1
  Segment part 37.            Intra module refs:   main
           ENTRY                   ADDRESS         REF BY
           =====                   =======         ======
           vCAST_E0_FILE           000FB43A        vCAST_OPEN_E0_FILE (B0000002)
                                                   vCAST_STORE_GLOBAL_ASCII_DATA (B0000002)
                                                   vCAST_STORE_PARAMETER_ASCII_DATA (B0000002)
    -------------------------------------------------------------------------
NEAR_Z
  Relative segment, address: 000FB43C - 000FB43D (0x2 bytes), align: 1
  Segment part 38.            Intra module refs:   VCAST_driver_termination
                                                   main
           ENTRY                   ADDRESS         REF BY
           =====                   =======         ======
           vCAST_OUTPUT_FILE       000FB43C        VCAST_SLOT_SEPARATOR (B0000002)
                                                   VCAST_TI_8_1 (B0000008)
                                                   VCAST_TI_8_2 (B0000008)
                                                   VCAST_TI_8_3 (B0000008)
                                                   VCAST_TI_8_4 (B0000008)
                                                   VCAST_TI_8_5 (B0000008)
                                                   VCAST_TI_9_1 (I0000009)
                                                   VCAST_TI_9_10 (I0000009)
                                                   VCAST_TI_9_111 (I0000009)
                                                   VCAST_TI_9_12 (I0000009)
                                                   VCAST_TI_9_14 (I0000009)
                                                   VCAST_TI_9_16 (I0000009)
                                                   VCAST_TI_9_18 (I0000009)
                                                   VCAST_TI_9_20 (I0000009)
                                                   VCAST_TI_9_22 (I0000009)
                                                   VCAST_TI_9_23 (I0000009)
                                                   VCAST_TI_9_24 (I0000009)
                                                   VCAST_TI_9_26 (I0000009)
                                                   VCAST_TI_9_28 (I0000009)
                                                   VCAST_TI_9_30 (I0000009)
                                                   VCAST_TI_9_31 (I0000009)
                                                   VCAST_TI_9_33 (I0000009)
                                                   VCAST_TI_9_35 (I0000009)
                                                   VCAST_TI_9_37 (I0000009)
                                                   VCAST_TI_9_39 (I0000009)
                                                   VCAST_TI_9_4 (I0000009)
                                                   VCAST_TI_9_40 (I0000009)
                                                   VCAST_TI_9_41 (I0000009)
                                                   VCAST_TI_9_42 (I0000009)
                                                   VCAST_TI_9_43 (I0000009)
                                                   VCAST_TI_9_44 (I0000009)
                                                   VCAST_TI_9_45 (I0000009)
                                                   VCAST_TI_9_49 (I0000009)
                                                   VCAST_TI_9_50 (I0000009)
                                                   VCAST_TI_9_53 (I0000009)
                                                   VCAST_TI_9_54 (I0000009)
                                                   VCAST_TI_9_6 (I0000009)
                                                   VCAST_TI_9_63 (I0000009)
                                                   VCAST_TI_9_64 (I0000009)
                                                   VCAST_TI_9_65 (I0000009)
                                                   VCAST_TI_9_68 (I0000009)
                                                   VCAST_TI_9_7 (I0000009)
                                                   VCAST_TI_9_72 (I0000009)
                                                   VCAST_TI_9_74 (I0000009)
                                                   VCAST_TI_9_77 (I0000009)
                                                   VCAST_TI_9_79 (I0000009)
                                                   VCAST_TI_9_8 (I0000009)
                                                   VCAST_TI_9_80 (I0000009)
                                                   VCAST_TI_9_81 (I0000009)
                                                   VCAST_TI_BITFIELD (B0000001)
                                                   VCAST_TI_RANGE_DATA_8 (B0000008)
                                                   VCAST_TI_RANGE_DATA_9 (I0000009)
                                                   VCAST_TI_STRING (B0000001)
                                                   vCAST_RUN_DATA_IF (B0000001)
                                                   vCAST_SET_OUTPUT_TO_EVENT_FILE (B0000002)
                                                   vCAST_STORE_PARAMETER_ASCII_DATA (B0000002)
    -------------------------------------------------------------------------
NEAR_Z
  Relative segment, address: 000FB43E - 000FB43F (0x2 bytes), align: 1
  Segment part 39.
           ENTRY                   ADDRESS         REF BY
           =====                   =======         ======
           vcast_user_file         000FB43E        vCAST_ONE_SHOT_INIT (B0000004)
                                                   vCAST_ONE_SHOT_TERM (B0000004)
    -------------------------------------------------------------------------
NEAR_Z
  Relative segment, address: 000FB440 - 000FB441 (0x2 bytes), align: 1
  Segment part 40.            Intra module refs:   VCAST_driver_termination
           ENTRY                   ADDRESS         REF BY
           =====                   =======         ======
           VCAST_EXP_FILE          000FB440        VCAST_SLOT_SEPARATOR (B0000002)
                                                   vCAST_ONE_SHOT_INIT (B0000004)
                                                   vCAST_ONE_SHOT_TERM (B0000004)
                                                   vCAST_SET_HISTORY_FLAGS (B0000002)
    -------------------------------------------------------------------------
NEAR_Z
  Relative segment, address: 000FB669 - 000FB669 (0x1 bytes), align: 0
  Segment part 43.            Intra module refs:   VCAST_driver_termination
                                                   main
                                                   vcastInitializeS2Data
           ENTRY                   ADDRESS         REF BY
           =====                   =======         ======
           vCAST_DO_DATA_IF        000FB669        vCAST_OPEN_HARNOPTS_FILE (B0000002)
    -------------------------------------------------------------------------
NEAR_Z
  Relative segment, address: 000FB66A - 000FB66A (0x1 bytes), align: 0
  Segment part 44.
           ENTRY                   ADDRESS         REF BY
           =====                   =======         ======
           vCAST_COMMAND_IS_MIN_MAX
                                   000FB66A        VCAST_TI_9_53 (I0000009)
                                                   VCAST_TI_STRING (B0000001)
    -------------------------------------------------------------------------
NEAR_Z
  Relative segment, address: 000FB66B - 000FB66B (0x1 bytes), align: 0
  Segment part 45.
           ENTRY                   ADDRESS         REF BY
           =====                   =======         ======
           vcast_is_in_union       000FB66B        VCAST_TI_9_1 (I0000009)
                                                   VCAST_TI_9_10 (I0000009)
                                                   VCAST_TI_9_12 (I0000009)
                                                   VCAST_TI_9_14 (I0000009)
                                                   VCAST_TI_9_16 (I0000009)
                                                   VCAST_TI_9_18 (I0000009)
                                                   VCAST_TI_9_20 (I0000009)
                                                   VCAST_TI_9_23 (I0000009)
                                                   VCAST_TI_9_24 (I0000009)
                                                   VCAST_TI_9_26 (I0000009)
                                                   VCAST_TI_9_28 (I0000009)
                                                   VCAST_TI_9_30 (I0000009)
                                                   VCAST_TI_9_33 (I0000009)
                                                   VCAST_TI_9_35 (I0000009)
                                                   VCAST_TI_9_4 (I0000009)
                                                   VCAST_TI_9_40 (I0000009)
                                                   VCAST_TI_9_42 (I0000009)
                                                   VCAST_TI_9_44 (I0000009)
                                                   VCAST_TI_9_7 (I0000009)
    -------------------------------------------------------------------------
NEAR_Z
  Relative segment, address: 000FB66C - 000FB66C (0x1 bytes), align: 0
  Segment part 46.            Intra module refs:   main
                                                   vcastInitializeS2Data
           ENTRY                   ADDRESS         REF BY
           =====                   =======         ======
           vCAST_INST_FILE_OPEN    000FB66C        vCAST_CLOSE_INST_FILE (B0000002)
                                                   vCAST_CREATE_INST_FILE (B0000002)
                                                   vcastInitializeB2Data (B0000002)
    -------------------------------------------------------------------------
NEAR_Z
  Relative segment, address: 000FB66D - 000FB66D (0x1 bytes), align: 0
  Segment part 47.            Intra module refs:   vcastInitializeS2Data
           ENTRY                   ADDRESS         REF BY
           =====                   =======         ======
           vCAST_EVENT_FILE_OPEN   000FB66D        vCAST_CLOSE_EVENT_FILE (B0000002)
                                                   vCAST_CREATE_EVENT_FILE (B0000002)
                                                   vcastInitializeB2Data (B0000002)
    -------------------------------------------------------------------------
NEAR_Z
  Relative segment, address: 000FB66E - 000FB66E (0x1 bytes), align: 0
  Segment part 48.            Intra module refs:   vcastInitializeS2Data
           ENTRY                   ADDRESS         REF BY
           =====                   =======         ======
           vCAST_HIST_FILE_OPEN    000FB66E        vCAST_CLOSE_HIST_FILE (B0000002)
                                                   vCAST_CLOSE_HIST_FILE_FOR_EVENT (B0000002)
                                                   vCAST_CREATE_HIST_FILE (B0000002)
                                                   vCAST_RE_OPEN_HIST_FILE (B0000002)
                                                   vcastInitializeB2Data (B0000002)
    -------------------------------------------------------------------------
NEAR_Z
  Relative segment, address: 000FB66F - 000FB66F (0x1 bytes), align: 0
  Segment part 49.            Intra module refs:   vcastInitializeS2Data
           ENTRY                   ADDRESS         REF BY
           =====                   =======         ======
           vCAST_TOOL_ERROR        000FB66F        VCAST_RUN_DATA_IF_8 (B0000008)
                                                   VCAST_RUN_DATA_IF_9 (I0000009)
                                                   VCAST_TI_9_1 (I0000009)
                                                   VCAST_TI_9_10 (I0000009)
                                                   VCAST_TI_9_11 (I0000009)
                                                   VCAST_TI_9_12 (I0000009)
                                                   VCAST_TI_9_13 (I0000009)
                                                   VCAST_TI_9_14 (I0000009)
                                                   VCAST_TI_9_15 (I0000009)
                                                   VCAST_TI_9_16 (I0000009)
                                                   VCAST_TI_9_17 (I0000009)
                                                   VCAST_TI_9_18 (I0000009)
                                                   VCAST_TI_9_19 (I0000009)
                                                   VCAST_TI_9_2 (I0000009)
                                                   VCAST_TI_9_20 (I0000009)
                                                   VCAST_TI_9_21 (I0000009)
                                                   VCAST_TI_9_23 (I0000009)
                                                   VCAST_TI_9_24 (I0000009)
                                                   VCAST_TI_9_25 (I0000009)
                                                   VCAST_TI_9_26 (I0000009)
                                                   VCAST_TI_9_27 (I0000009)
                                                   VCAST_TI_9_28 (I0000009)
                                                   VCAST_TI_9_29 (I0000009)
                                                   VCAST_TI_9_30 (I0000009)
                                                   VCAST_TI_9_32 (I0000009)
                                                   VCAST_TI_9_33 (I0000009)
                                                   VCAST_TI_9_34 (I0000009)
                                                   VCAST_TI_9_35 (I0000009)
                                                   VCAST_TI_9_36 (I0000009)
                                                   VCAST_TI_9_38 (I0000009)
                                                   VCAST_TI_9_4 (I0000009)
                                                   VCAST_TI_9_40 (I0000009)
                                                   VCAST_TI_9_42 (I0000009)
                                                   VCAST_TI_9_44 (I0000009)
                                                   VCAST_TI_9_5 (I0000009)
                                                   VCAST_TI_9_53 (I0000009)
                                                   VCAST_TI_9_55 (I0000009)
                                                   VCAST_TI_9_57 (I0000009)
                                                   VCAST_TI_9_59 (I0000009)
                                                   VCAST_TI_9_7 (I0000009)
                                                   VCAST_TI_9_70 (I0000009)
                                                   VCAST_TI_9_9 (I0000009)
                                                   vCAST_RUN_DATA_IF (B0000001)
                                                   vcastInitializeB2Data (B0000002)
                                                   vcast_B1_switch (B1_switch)
                                                   vcast_S3_switch (S3_switch)
    -------------------------------------------------------------------------
NEAR_Z
  Relative segment, address: 000FB670 - 000FB670 (0x1 bytes), align: 0
  Segment part 50.            Intra module refs:   main
                                                   vcastInitializeS2Data
           ENTRY                   ADDRESS         REF BY
           =====                   =======         ======
           vCAST_HAS_RANGE         000FB670        vcastInitializeB2Data (B0000002)
    -------------------------------------------------------------------------
NEAR_Z
  Relative segment, address: 000FB671 - 000FB671 (0x1 bytes), align: 0
  Segment part 51.            Intra module refs:   vcastInitializeS2Data
           ENTRY                   ADDRESS         REF BY
           =====                   =======         ======
           vCAST_SKIP_ITER         000FB671        vcastInitializeB2Data (B0000002)
    -------------------------------------------------------------------------
NEAR_Z
  Relative segment, address: 000FB672 - 000FB672 (0x1 bytes), align: 0
  Segment part 52.            Intra module refs:   vcastInitializeS2Data
           ENTRY                   ADDRESS         REF BY
           =====                   =======         ======
           VCAST_DEFAULT_FULL_STRINGS
                                   000FB672        vCAST_RESET_HARNOPTS_FILE (B0000002)
                                                   vCAST_SET_TESTCASE_CONFIGURATION_OPTIONS (B0000002)
    -------------------------------------------------------------------------
NEAR_Z
  Relative segment, address: 000FB673 - 000FB673 (0x1 bytes), align: 0
  Segment part 53.            Intra module refs:   vcastInitializeS2Data
           ENTRY                   ADDRESS         REF BY
           =====                   =======         ======
           VCAST_DEFAULT_HEX_NOTATION
                                   000FB673        vCAST_RESET_HARNOPTS_FILE (B0000002)
                                                   vCAST_SET_TESTCASE_CONFIGURATION_OPTIONS (B0000002)
    -------------------------------------------------------------------------
NEAR_Z
  Relative segment, address: 000FB674 - 000FB674 (0x1 bytes), align: 0
  Segment part 54.            Intra module refs:   vcastInitializeS2Data
           ENTRY                   ADDRESS         REF BY
           =====                   =======         ======
           VCAST_DEFAULT_DO_COMBINATION
                                   000FB674        vCAST_RESET_HARNOPTS_FILE (B0000002)
                                                   vCAST_SET_TESTCASE_CONFIGURATION_OPTIONS (B0000002)
    -------------------------------------------------------------------------
NEAR_Z
  Relative segment, address: 000FB675 - 000FB675 (0x1 bytes), align: 0
  Segment part 55.            Intra module refs:   VCAST_driver_termination
                                                   main
           ENTRY                   ADDRESS         REF BY
           =====                   =======         ======
           vcast_is_in_driver      000FB675        Check_StartupActiveErrors (I0000009)
                                                   CopyRLSDataAsic (I0000009)
                                                   VCAST_TI_8_1 (B0000008)
                                                   get_rb_LEDx_LStop_error_cnt_g (I0000009)
                                                   get_rb_LightSignalErrorCnt_g (I0000009)
                                                   get_rb_LightVetoCounter_g (I0000009)
                                                   get_rb_VDD_LightSignalErrorCnt_g (I0000009)
                                                   get_rl_HUD_light32bit_g (I0000009)
                                                   get_rw_Amb_light16bit_g (I0000009)
                                                   get_rw_IR_light16bit_g (I0000009)
                                                   sci_init (I0000009)
                                                   vCAST_SET_HISTORY_FLAGS (B0000002)
    -------------------------------------------------------------------------
NEAR_I
  Relative segment, address: 000FAF73 - 000FAF73 (0x1 bytes), align: 0
  Segment part 56.            Intra module refs:   vcastInitializeS2Data
           ENTRY                   ADDRESS         REF BY
           =====                   =======         ======
           VCAST_GLOBAL_FIRST_EVENT
                                   000FAF73        vCAST_STORE_ASCII_DATA (B0000002)
                                                   vCAST_STORE_GLOBAL_ASCII_DATA (B0000002)
    -------------------------------------------------------------------------
NEAR_I
  Relative segment, address: 000FAF10 - 000FAF11 (0x2 bytes), align: 1
  Segment part 58.            Intra module refs:   main
           ENTRY                   ADDRESS         REF BY
           =====                   =======         ======
           vCAST_NUM_RANGE_ITERATIONS
                                   000FAF10 
    -------------------------------------------------------------------------
NEAR_Z
  Relative segment, address: 000FB442 - 000FB443 (0x2 bytes), align: 1
  Segment part 60.            Intra module refs:   main
                                                   vcastInitializeS2Data
           ENTRY                   ADDRESS         REF BY
           =====                   =======         ======
           vCAST_RANGE_COUNTER     000FB442        vCAST_READ_COMMAND_DATA_FOR_USER_GLOBALS (B0000002)
    -------------------------------------------------------------------------
NEAR_Z
  Relative segment, address: 000FB444 - 000FB445 (0x2 bytes), align: 1
  Segment part 61.            Intra module refs:   vcastInitializeS2Data
           ENTRY                   ADDRESS         REF BY
           =====                   =======         ======
           VCAST_GLOBALS_DISPLAY   000FB444        vCAST_SET_HISTORY_FLAGS (B0000002)
                                                   vCAST_SET_TESTCASE_CONFIGURATION_OPTIONS (B0000002)
                                                   vCAST_SHOULD_DISPLAY_GLOBALS (B0000002)
                                                   vCAST_STORE_ASCII_DATA (B0000002)
                                                   vCAST_STORE_GLOBAL_ASCII_DATA (B0000002)
    -------------------------------------------------------------------------
NEAR_Z
  Relative segment, address: 000FB446 - 000FB447 (0x2 bytes), align: 1
  Segment part 62.            Intra module refs:   vCAST_END
           ENTRY                   ADDRESS         REF BY
           =====                   =======         ======
           vcast_exit_flag         000FB446 
    -------------------------------------------------------------------------
NEAR_Z
  Relative segment, address: 000FB676 - 000FB676 (0x1 bytes), align: 0
  Segment part 63.            Intra module refs:   vCAST_END
           ENTRY                   ADDRESS         REF BY
           =====                   =======         ======
           vcast_already_exited    000FB676 
    -------------------------------------------------------------------------
<XCODE> 2 (was XCODE)
  Relative segment, address: 0000ECC6 - 0000EEC2 (0x1fd bytes), align: 0
  Segment part 64.
           ENTRY                   ADDRESS         REF BY
           =====                   =======         ======
           main                    0000ECC6        Segment part 1 (?__MAIN_CALL)
               calls direct
               CSTACK = 00000000 ( 0000001C )
    -------------------------------------------------------------------------
<XCODE> 2 (was XCODE)
  Relative segment, address: 0000EEC3 - 0000EF99 (0xd7 bytes), align: 0
  Segment part 65.            Intra module refs:   main
           ENTRY                   ADDRESS         REF BY
           =====                   =======         ======
           VCAST_driver_termination
                                   0000EEC3        VCAST_malloc (B0000002)
                                                   vCAST_SET_HISTORY_FLAGS (B0000002)
               calls direct
               CSTACK = 00000000 ( 00000004 )
    -------------------------------------------------------------------------
<XCODE> 2 (was XCODE)
  Relative segment, address: 0000EF9A - 0000EFD1 (0x38 bytes), align: 0
  Segment part 66.            Intra module refs:   main
           ENTRY                   ADDRESS         REF BY
           =====                   =======         ======
           vcastInitializeS2Data   0000EF9A 
    -------------------------------------------------------------------------
<XCODE> 2 (was XCODE)
  Relative segment, address: 0000EFD2 - 0000EFD9 (0x8 bytes), align: 0
  Segment part 67.            Intra module refs:   VCAST_driver_termination
           ENTRY                   ADDRESS         REF BY
           =====                   =======         ======
           vCAST_END               0000EFD2 
    -------------------------------------------------------------------------
<XCODE> 2 (was XCODE)
  Relative segment, address: 0000EFDA - 0000EFDA (0x1 bytes), align: 0
  Segment part 68.            Intra module refs:   main
           ENTRY                   ADDRESS         REF BY
           =====                   =======         ======
           vcastStartProfiling     0000EFDA 
    -------------------------------------------------------------------------
<XCODE> 2 (was XCODE)
  Relative segment, address: 0000EFDB - 0000EFEB (0x11 bytes), align: 0
  Segment part 69.            Intra module refs:   VCAST_driver_termination
           ENTRY                   ADDRESS         REF BY
           =====                   =======         ======
           vcastSaveProfilingData
                                   0000EFDB 
               calls direct
               CSTACK = 00000000 ( 00000002 )
    -------------------------------------------------------------------------
NEAR_ID
  Relative segment, address: 00000BC0 - 00000BC1 (0x2 bytes), align: 1
  Segment part 18.            Intra module refs:   vCAST_UNIT
    -------------------------------------------------------------------------
NEAR_ID
  Relative segment, address: 00000BC2 - 00000BC3 (0x2 bytes), align: 1
  Segment part 20.            Intra module refs:   vCAST_SUBPROGRAM
    -------------------------------------------------------------------------
NEAR_ID
  Relative segment, address: 00000BC4 - 00000BC5 (0x2 bytes), align: 1
  Segment part 24.            Intra module refs:   vCAST_HIST_INDEX
    -------------------------------------------------------------------------
NEAR_ID
  Relative segment, address: 00000BC6 - 00000BC7 (0x2 bytes), align: 1
  Segment part 26.            Intra module refs:   vCAST_HIST_LIMIT
    -------------------------------------------------------------------------
NEAR_ID
  Relative segment, address: 00000BC8 - 00000BC9 (0x2 bytes), align: 1
  Segment part 28.            Intra module refs:   vCAST_ENV_HIST_LIMIT
    -------------------------------------------------------------------------
NEAR_ID
  Relative segment, address: 00000BCA - 00000BCD (0x4 bytes), align: 1
  Segment part 31.            Intra module refs:   vCAST_PARTITIONS
    -------------------------------------------------------------------------
NEAR_ID
  Relative segment, address: 00000C31 - 00000C31 (0x1 bytes), align: 0
  Segment part 57.            Intra module refs:   VCAST_GLOBAL_FIRST_EVENT
    -------------------------------------------------------------------------
NEAR_ID
  Relative segment, address: 00000BCE - 00000BCF (0x2 bytes), align: 1
  Segment part 59.            Intra module refs:   vCAST_NUM_RANGE_ITERATIONS
    -------------------------------------------------------------------------
NEAR_CONST
  Relative segment, address: 000F31C0 - 000F31C5 (0x6 bytes), align: 1
  Segment part 2.             Intra module refs:   main
    -------------------------------------------------------------------------
NEAR_CONST
  Relative segment, address: 000F31C6 - 000F31C7 (0x2 bytes), align: 1
  Segment part 3.             Intra module refs:   main
                                                   vcastSaveProfilingData
    -------------------------------------------------------------------------
NEAR_CONST
  Relative segment, address: 000F31C8 - 000F31D1 (0xa bytes), align: 1
  Segment part 4.             Intra module refs:   main
    -------------------------------------------------------------------------
NEAR_CONST
  Relative segment, address: 000F31D2 - 000F31D3 (0x2 bytes), align: 1
  Segment part 5.             Intra module refs:   main
    -------------------------------------------------------------------------
NEAR_CONST
  Relative segment, address: 000F31D4 - 000F31D7 (0x4 bytes), align: 1
  Segment part 6.             Intra module refs:   VCAST_driver_termination
    -------------------------------------------------------------------------
NEAR_CONST
  Relative segment, address: 000F31D8 - 000F31E1 (0xa bytes), align: 1
  Segment part 7.             Intra module refs:   VCAST_driver_termination
    -------------------------------------------------------------------------
NEAR_CONST
  Relative segment, address: 000F31E2 - 000F31E7 (0x6 bytes), align: 1
  Segment part 8.             Intra module refs:   VCAST_driver_termination
    -------------------------------------------------------------------------
NEAR_CONST
  Relative segment, address: 000F31E8 - 000F3227 (0x40 bytes), align: 1
  Segment part 9.             Intra module refs:   VCAST_driver_termination
    -------------------------------------------------------------------------
NEAR_CONST
  Relative segment, address: 000F3228 - 000F3237 (0x10 bytes), align: 1
  Segment part 10.            Intra module refs:   VCAST_driver_termination
    -------------------------------------------------------------------------
NEAR_CONST
  Relative segment, address: 000F3238 - 000F3277 (0x40 bytes), align: 1
  Segment part 11.            Intra module refs:   VCAST_driver_termination
    -------------------------------------------------------------------------
NEAR_CONST
  Relative segment, address: 000F3278 - 000F3287 (0x10 bytes), align: 1
  Segment part 12.            Intra module refs:   vcastSaveProfilingData
    -------------------------------------------------------------------------
NEAR_CONST_ID
  Relative segment, address: 000031C0 - 000031C5 (0x6 bytes), align: 1
  Segment part 70.            Intra module refs:   Segment part 2
    -------------------------------------------------------------------------
NEAR_CONST_ID
  Relative segment, address: 000031C6 - 000031C7 (0x2 bytes), align: 1
  Segment part 71.            Intra module refs:   Segment part 3
    -------------------------------------------------------------------------
NEAR_CONST_ID
  Relative segment, address: 000031C8 - 000031D1 (0xa bytes), align: 1
  Segment part 72.            Intra module refs:   Segment part 4
    -------------------------------------------------------------------------
NEAR_CONST_ID
  Relative segment, address: 000031D2 - 000031D3 (0x2 bytes), align: 1
  Segment part 73.            Intra module refs:   Segment part 5
    -------------------------------------------------------------------------
NEAR_CONST_ID
  Relative segment, address: 000031D4 - 000031D7 (0x4 bytes), align: 1
  Segment part 74.            Intra module refs:   Segment part 6
    -------------------------------------------------------------------------
NEAR_CONST_ID
  Relative segment, address: 000031D8 - 000031E1 (0xa bytes), align: 1
  Segment part 75.            Intra module refs:   Segment part 7
    -------------------------------------------------------------------------
NEAR_CONST_ID
  Relative segment, address: 000031E2 - 000031E7 (0x6 bytes), align: 1
  Segment part 76.            Intra module refs:   Segment part 8
    -------------------------------------------------------------------------
NEAR_CONST_ID
  Relative segment, address: 000031E8 - 00003227 (0x40 bytes), align: 1
  Segment part 77.            Intra module refs:   Segment part 9
    -------------------------------------------------------------------------
NEAR_CONST_ID
  Relative segment, address: 00003228 - 00003237 (0x10 bytes), align: 1
  Segment part 78.            Intra module refs:   Segment part 10
    -------------------------------------------------------------------------
NEAR_CONST_ID
  Relative segment, address: 00003238 - 00003277 (0x40 bytes), align: 1
  Segment part 79.            Intra module refs:   Segment part 11
    -------------------------------------------------------------------------
NEAR_CONST_ID
  Relative segment, address: 00003278 - 00003287 (0x10 bytes), align: 1
  Segment part 80.            Intra module refs:   Segment part 12

    *************************************************************************

  FILE NAME : C:\Users\zhu1\Downloads\SW_Need_Change_Managemant\GEEA2.0\E4-2_SW\RLS_SYS_RLS_GP_RLXS_GEN5_DEV_APL_GEELY2.0_RLFS_FOR_E4_03\05_SwDev\01_SrcCode\Application\CustomerInterface\ModuleTest\1234\B0000008.r87
  PROGRAM MODULE, NAME : B0000008

  SEGMENTS IN THE MODULE
  ======================
NEAR_Z
  Relative segment, address: 000FB448 - 000FB449 (0x2 bytes), align: 1
  Segment part 13.            Intra module refs:   VCAST_RUN_DATA_IF_8
           ENTRY                   ADDRESS         REF BY
           =====                   =======         ======
           VECTORCAST_INT1         000FB448 
    -------------------------------------------------------------------------
NEAR_Z
  Relative segment, address: 000FB44A - 000FB44B (0x2 bytes), align: 1
  Segment part 14.            Intra module refs:   VCAST_RUN_DATA_IF_8
           ENTRY                   ADDRESS         REF BY
           =====                   =======         ======
           VECTORCAST_INT2         000FB44A 
    -------------------------------------------------------------------------
NEAR_Z
  Relative segment, address: 000FB44C - 000FB44D (0x2 bytes), align: 1
  Segment part 15.            Intra module refs:   VCAST_RUN_DATA_IF_8
           ENTRY                   ADDRESS         REF BY
           =====                   =======         ======
           VECTORCAST_INT3         000FB44C 
    -------------------------------------------------------------------------
NEAR_Z
  Relative segment, address: 000FB44E - 000FB451 (0x4 bytes), align: 1
  Segment part 16.            Intra module refs:   VCAST_RUN_DATA_IF_8
           ENTRY                   ADDRESS         REF BY
           =====                   =======         ======
           VECTORCAST_FLT1         000FB44E 
    -------------------------------------------------------------------------
NEAR_Z
  Relative segment, address: 000FB452 - 000FB459 (0x8 bytes), align: 1
  Segment part 17.            Intra module refs:   VCAST_RUN_DATA_IF_8
           ENTRY                   ADDRESS         REF BY
           =====                   =======         ======
           VECTORCAST_STR1         000FB452 
    -------------------------------------------------------------------------
NEAR_Z
  Relative segment, address: 000FB45A - 000FB461 (0x8 bytes), align: 1
  Segment part 18.            Intra module refs:   VCAST_RUN_DATA_IF_8
           ENTRY                   ADDRESS         REF BY
           =====                   =======         ======
           VECTORCAST_BUFFER       000FB45A 
    -------------------------------------------------------------------------
<XCODE> 2 (was XCODE)
  Relative segment, address: 0000E345 - 0000E38D (0x49 bytes), align: 0
  Segment part 19.            Intra module refs:   Segment part 33
           ENTRY                   ADDRESS         REF BY
           =====                   =======         ======
           VCAST_RUN_DATA_IF_8     0000E345        vcast_B1_switch (B1_switch)
               calls direct
    -------------------------------------------------------------------------
<XCODE> 2 (was XCODE)
  Relative segment, address: 0000E38E - 0000E409 (0x7c bytes), align: 0
  Segment part 20.            Intra module refs:   VCAST_RUN_DATA_IF_8
                                                   VCAST_TI_8_5
           ENTRY                   ADDRESS         REF BY
           =====                   =======         ======
           VCAST_TI_8_2            0000E38E        VCAST_RUN_DATA_IF_9 (I0000009)
               calls direct
               CSTACK = 00000000 ( 00000002 )
    -------------------------------------------------------------------------
<XCODE> 2 (was XCODE)
  Relative segment, address: 0000E40A - 0000E507 (0xfe bytes), align: 0
  Segment part 21.            Intra module refs:   VCAST_RUN_DATA_IF_8
           ENTRY                   ADDRESS         REF BY
           =====                   =======         ======
           VCAST_TI_8_3            0000E40A 
               calls direct
               CSTACK = 00000000 ( 00000008 )
    -------------------------------------------------------------------------
<XCODE> 2 (was XCODE)
  Relative segment, address: 0000E508 - 0000E5F0 (0xe9 bytes), align: 0
  Segment part 22.            Intra module refs:   VCAST_RUN_DATA_IF_8
           ENTRY                   ADDRESS         REF BY
           =====                   =======         ======
           VCAST_TI_8_4            0000E508 
               calls direct
               CSTACK = 00000000 ( 0000001A )
    -------------------------------------------------------------------------
<XCODE> 2 (was XCODE)
  Relative segment, address: 0000E5F1 - 0000E6B4 (0xc4 bytes), align: 0
  Segment part 23.            Intra module refs:   VCAST_RUN_DATA_IF_8
           ENTRY                   ADDRESS         REF BY
           =====                   =======         ======
           VCAST_TI_8_5            0000E5F1 
               calls direct
               CSTACK = 00000000 ( 00000014 )
    -------------------------------------------------------------------------
<XCODE> 2 (was XCODE)
  Relative segment, address: 0000E6B5 - 0000E743 (0x8f bytes), align: 0
  Segment part 24.            Intra module refs:   VCAST_TI_8_4
           ENTRY                   ADDRESS         REF BY
           =====                   =======         ======
           VCAST_TI_8_1            0000E6B5 
               calls direct
               CSTACK = 00000000 ( 00000002 )
    -------------------------------------------------------------------------
<XCODE> 2 (was XCODE)
  Relative segment, address: 0000E744 - 0000E88F (0x14c bytes), align: 0
  Segment part 25.
           ENTRY                   ADDRESS         REF BY
           =====                   =======         ======
           VCAST_TI_RANGE_DATA_8   0000E744        vcast_B1_switch (B1_switch)
               calls direct
               CSTACK = 00000000 ( 00000006 )
    -------------------------------------------------------------------------
<XCODE> 2 (was XCODE)
  Relative segment, address: 0000E890 - 0000E890 (0x1 bytes), align: 0
  Segment part 26.            Intra module refs:   VCAST_USER_CODE_UNIT_8
           ENTRY                   ADDRESS         REF BY
           =====                   =======         ======
           vCAST_VALUE_USER_CODE_8
                                   0000E890 
    -------------------------------------------------------------------------
<XCODE> 2 (was XCODE)
  Relative segment, address: 0000E891 - 0000E891 (0x1 bytes), align: 0
  Segment part 27.            Intra module refs:   VCAST_USER_CODE_UNIT_8
           ENTRY                   ADDRESS         REF BY
           =====                   =======         ======
           vCAST_EXPECTED_USER_CODE_8
                                   0000E891 
    -------------------------------------------------------------------------
<XCODE> 2 (was XCODE)
  Relative segment, address: 0000E892 - 0000E892 (0x1 bytes), align: 0
  Segment part 28.            Intra module refs:   VCAST_USER_CODE_UNIT_8
           ENTRY                   ADDRESS         REF BY
           =====                   =======         ======
           vCAST_EGLOBALS_USER_CODE_8
                                   0000E892 
    -------------------------------------------------------------------------
<XCODE> 2 (was XCODE)
  Relative segment, address: 0000E893 - 0000E8AE (0x1c bytes), align: 0
  Segment part 31.
           ENTRY                   ADDRESS         REF BY
           =====                   =======         ======
           VCAST_USER_CODE_UNIT_8
                                   0000E893        vcast_B4_switch (B4_switch)
               calls direct
    -------------------------------------------------------------------------
<FSWITCH> 1 (was FSWITCH)
  Relative segment, address: 00001184 - 00001195 (0x12 bytes), align: 1
  Segment part 33.            Intra module refs:   VCAST_RUN_DATA_IF_8
    -------------------------------------------------------------------------
NEAR_CONST
  Relative segment, address: 000F3288 - 000F328D (0x6 bytes), align: 1
  Segment part 2.             Intra module refs:   VCAST_TI_8_1
                                                   VCAST_TI_8_2
                                                   VCAST_TI_8_3
    -------------------------------------------------------------------------
NEAR_CONST
  Relative segment, address: 000F328E - 000F328F (0x2 bytes), align: 1
  Segment part 3.             Intra module refs:   VCAST_TI_8_2
                                                   VCAST_TI_8_3
                                                   VCAST_TI_8_4
                                                   VCAST_TI_8_5
                                                   VCAST_TI_RANGE_DATA_8
    -------------------------------------------------------------------------
NEAR_CONST
  Relative segment, address: 000F3290 - 000F3293 (0x4 bytes), align: 1
  Segment part 4.             Intra module refs:   VCAST_TI_8_4
                                                   VCAST_TI_8_5
                                                   VCAST_TI_RANGE_DATA_8
    -------------------------------------------------------------------------
NEAR_CONST
  Relative segment, address: 000F3294 - 000F32AB (0x18 bytes), align: 1
  Segment part 5.             Intra module refs:   VCAST_TI_8_4
                                                   VCAST_TI_8_5
    -------------------------------------------------------------------------
NEAR_CONST
  Relative segment, address: 000F32AC - 000F32B7 (0xc bytes), align: 1
  Segment part 6.             Intra module refs:   VCAST_TI_RANGE_DATA_8
    -------------------------------------------------------------------------
NEAR_CONST
  Relative segment, address: 000F32B8 - 000F32BF (0x8 bytes), align: 1
  Segment part 7.             Intra module refs:   VCAST_TI_RANGE_DATA_8
    -------------------------------------------------------------------------
NEAR_CONST
  Relative segment, address: 000F32C0 - 000F32C7 (0x8 bytes), align: 1
  Segment part 8.             Intra module refs:   VCAST_TI_RANGE_DATA_8
    -------------------------------------------------------------------------
NEAR_CONST
  Relative segment, address: 000F32C8 - 000F32CF (0x8 bytes), align: 1
  Segment part 9.             Intra module refs:   VCAST_TI_RANGE_DATA_8
    -------------------------------------------------------------------------
NEAR_CONST
  Relative segment, address: 000F32D0 - 000F32DB (0xc bytes), align: 1
  Segment part 10.            Intra module refs:   VCAST_TI_RANGE_DATA_8
    -------------------------------------------------------------------------
NEAR_CONST
  Relative segment, address: 000F32DC - 000F32E3 (0x8 bytes), align: 1
  Segment part 11.            Intra module refs:   VCAST_TI_RANGE_DATA_8
    -------------------------------------------------------------------------
NEAR_CONST
  Relative segment, address: 000F32E4 - 000F32EB (0x8 bytes), align: 1
  Segment part 12.            Intra module refs:   VCAST_TI_RANGE_DATA_8
    -------------------------------------------------------------------------
NEAR_CONST_ID
  Relative segment, address: 00003288 - 0000328D (0x6 bytes), align: 1
  Segment part 34.            Intra module refs:   Segment part 2
    -------------------------------------------------------------------------
NEAR_CONST_ID
  Relative segment, address: 0000328E - 0000328F (0x2 bytes), align: 1
  Segment part 35.            Intra module refs:   Segment part 3
    -------------------------------------------------------------------------
NEAR_CONST_ID
  Relative segment, address: 00003290 - 00003293 (0x4 bytes), align: 1
  Segment part 36.            Intra module refs:   Segment part 4
    -------------------------------------------------------------------------
NEAR_CONST_ID
  Relative segment, address: 00003294 - 000032AB (0x18 bytes), align: 1
  Segment part 37.            Intra module refs:   Segment part 5
    -------------------------------------------------------------------------
NEAR_CONST_ID
  Relative segment, address: 000032AC - 000032B7 (0xc bytes), align: 1
  Segment part 38.            Intra module refs:   Segment part 6
    -------------------------------------------------------------------------
NEAR_CONST_ID
  Relative segment, address: 000032B8 - 000032BF (0x8 bytes), align: 1
  Segment part 39.            Intra module refs:   Segment part 7
    -------------------------------------------------------------------------
NEAR_CONST_ID
  Relative segment, address: 000032C0 - 000032C7 (0x8 bytes), align: 1
  Segment part 40.            Intra module refs:   Segment part 8
    -------------------------------------------------------------------------
NEAR_CONST_ID
  Relative segment, address: 000032C8 - 000032CF (0x8 bytes), align: 1
  Segment part 41.            Intra module refs:   Segment part 9
    -------------------------------------------------------------------------
NEAR_CONST_ID
  Relative segment, address: 000032D0 - 000032DB (0xc bytes), align: 1
  Segment part 42.            Intra module refs:   Segment part 10
    -------------------------------------------------------------------------
NEAR_CONST_ID
  Relative segment, address: 000032DC - 000032E3 (0x8 bytes), align: 1
  Segment part 43.            Intra module refs:   Segment part 11
    -------------------------------------------------------------------------
NEAR_CONST_ID
  Relative segment, address: 000032E4 - 000032EB (0x8 bytes), align: 1
  Segment part 44.            Intra module refs:   Segment part 12

    *************************************************************************

  FILE NAME : C:\Users\zhu1\Downloads\SW_Need_Change_Managemant\GEEA2.0\E4-2_SW\RLS_SYS_RLS_GP_RLXS_GEN5_DEV_APL_GEELY2.0_RLFS_FOR_E4_03\05_SwDev\01_SrcCode\Application\CustomerInterface\ModuleTest\1234\B0000004.r87
  PROGRAM MODULE, NAME : B0000004

  SEGMENTS IN THE MODULE
  ======================
<XCODE> 2 (was XCODE)
  Relative segment, address: 0000F18C - 0000F18C (0x1 bytes), align: 0
  Segment part 3.
           ENTRY                   ADDRESS         REF BY
           =====                   =======         ======
           vCAST_INITIALIZE_PARAMETERS
                                   0000F18C        main (S0000003)
    -------------------------------------------------------------------------
<XCODE> 2 (was XCODE)
  Relative segment, address: 0000F18D - 0000F195 (0x9 bytes), align: 0
  Segment part 4.
           ENTRY                   ADDRESS         REF BY
           =====                   =======         ======
           vCAST_USER_CODE_INITIALIZE
                                   0000F18D        main (S0000003)
               calls direct
               CSTACK = 00000000 ( 00000002 )
    -------------------------------------------------------------------------
<XCODE> 2 (was XCODE)
  Relative segment, address: 0000F196 - 0000F19E (0x9 bytes), align: 0
  Segment part 5.
           ENTRY                   ADDRESS         REF BY
           =====                   =======         ======
           vCAST_USER_CODE_CAPTURE
                                   0000F196        main (S0000003)
               calls direct
               CSTACK = 00000000 ( 00000002 )
    -------------------------------------------------------------------------
<XCODE> 2 (was XCODE)
  Relative segment, address: 0000F19F - 0000F1A8 (0xa bytes), align: 0
  Segment part 6.
           ENTRY                   ADDRESS         REF BY
           =====                   =======         ======
           vCAST_USER_CODE_CAPTURE_GLOBALS
                                   0000F19F        vCAST_STORE_ASCII_DATA (B0000002)
                                                   vCAST_STORE_GLOBAL_ASCII_DATA (B0000002)
               calls direct
               CSTACK = 00000000 ( 00000002 )
    -------------------------------------------------------------------------
<XCODE> 2 (was XCODE)
  Relative segment, address: 0000F1A9 - 0000F1CF (0x27 bytes), align: 0
  Segment part 7.
           ENTRY                   ADDRESS         REF BY
           =====                   =======         ======
           vCAST_ONE_SHOT_INIT     0000F1A9        main (S0000003)
               calls direct
               CSTACK = 00000000 ( 00000002 )
    -------------------------------------------------------------------------
<XCODE> 2 (was XCODE)
  Relative segment, address: 0000F1D0 - 0000F1DE (0xf bytes), align: 0
  Segment part 8.
           ENTRY                   ADDRESS         REF BY
           =====                   =======         ======
           vCAST_ONE_SHOT_TERM     0000F1D0        VCAST_driver_termination (S0000003)
               calls direct
    -------------------------------------------------------------------------
<XCODE> 2 (was XCODE)
  Relative segment, address: 0000F1DF - 0000F1DF (0x1 bytes), align: 0
  Segment part 9.
           ENTRY                   ADDRESS         REF BY
           =====                   =======         ======
           vCAST_GLOBAL_STUB_PROCESSING
                                   0000F1DF        vCAST_STUB_PROCESSING_9 (I0000009)
    -------------------------------------------------------------------------
<XCODE> 2 (was XCODE)
  Relative segment, address: 0000F1E0 - 0000F1E0 (0x1 bytes), align: 0
  Segment part 10.
           ENTRY                   ADDRESS         REF BY
           =====                   =======         ======
           vCAST_GLOBAL_BEGINNING_OF_STUB_PROCESSING
                                   0000F1E0        vCAST_BEGIN_STUB_PROC_9 (I0000009)
    -------------------------------------------------------------------------
<XCODE> 2 (was XCODE)
  Relative segment, address: 0000F1E1 - 0000F1ED (0xd bytes), align: 0
  Segment part 11.            Intra module refs:   vCAST_USER_CODE_CAPTURE
                                                   vCAST_USER_CODE_CAPTURE_GLOBALS
                                                   vCAST_USER_CODE_INITIALIZE
           ENTRY                   ADDRESS         REF BY
           =====                   =======         ======
           vCAST_USER_CODE         0000F1E1 
               calls direct
               CSTACK = 00000000 ( 00000002 )
    -------------------------------------------------------------------------
NEAR_CONST
  Relative segment, address: 000F32EC - 000F32ED (0x2 bytes), align: 1
  Segment part 2.             Intra module refs:   vCAST_ONE_SHOT_INIT
    -------------------------------------------------------------------------
NEAR_CONST_ID
  Relative segment, address: 000032EC - 000032ED (0x2 bytes), align: 1
  Segment part 12.            Intra module refs:   Segment part 2

    *************************************************************************

  FILE NAME : C:\Users\zhu1\Downloads\SW_Need_Change_Managemant\GEEA2.0\E4-2_SW\RLS_SYS_RLS_GP_RLXS_GEN5_DEV_APL_GEELY2.0_RLFS_FOR_E4_03\05_SwDev\01_SrcCode\Application\CustomerInterface\ModuleTest\1234\B0000007.r87
  PROGRAM MODULE, NAME : B0000007

  SEGMENTS IN THE MODULE
  ======================
<XCODE> 1 (was XCODE)
  Relative segment, address: 00001DFF - 00001E05 (0x7 bytes), align: 0
  Segment part 49.            Intra module refs:   vectorcast_terminate_io
           ENTRY                   ADDRESS         REF BY
           =====                   =======         ======
           free                    00001DFF 
               calls direct
    -------------------------------------------------------------------------
NEAR_Z
  Relative segment, address: 000FB462 - 000FB463 (0x2 bytes), align: 1
  Segment part 24.            Intra module refs:   VCAST_Add_Allocated_Data
                                                   vectorcast_terminate_io
           ENTRY                   ADDRESS         REF BY
           =====                   =======         ======
           VCAST_allocated_data_list
                                   000FB462 
    -------------------------------------------------------------------------
<XCODE> 1 (was XCODE)
  Relative segment, address: 00001E06 - 00001E37 (0x32 bytes), align: 0
  Segment part 50.
           ENTRY                   ADDRESS         REF BY
           =====                   =======         ======
           VCAST_Add_Allocated_Data
                                   00001E06        VCAST_TI_9_53 (I0000009)
               calls direct
               CSTACK = 00000000 ( 00000002 )
    -------------------------------------------------------------------------
NEAR_I
  Relative segment, address: 000FAF12 - 000FAF13 (0x2 bytes), align: 1
  Segment part 25.            Intra module refs:   AdvanceCurrentLine
                                                   readLengthAndStringFromInputDataArray
                                                   vectorcast_fopen
                                                   vectorcast_initialize_io_stdio
           LOCAL                   ADDRESS         
           =====                   =======         
           vcastLengthBytes        000FAF12 
    -------------------------------------------------------------------------
NEAR_Z
  Relative segment, address: 000FB464 - 000FB465 (0x2 bytes), align: 1
  Segment part 27.            Intra module refs:   readLengthAndStringFromInputDataArray
                                                   vectorcast_initialize_io_stdio
           LOCAL                   ADDRESS         
           =====                   =======         
           inputDataArrayStart     000FB464 
    -------------------------------------------------------------------------
NEAR_Z
  Relative segment, address: 000FB466 - 000FB467 (0x2 bytes), align: 1
  Segment part 28.            Intra module refs:   vectorcast_initialize_io_stdio
           LOCAL                   ADDRESS         
           =====                   =======         
           currentIndexIntoDataArray
                                   000FB466 
    -------------------------------------------------------------------------
NEAR_Z
  Relative segment, address: 000FB468 - 000FB469 (0x2 bytes), align: 1
  Segment part 29.            Intra module refs:   GetFile
                                                   GetFileFromName
                                                   GetFileOffsets
                                                   GetIdNumber
                                                   SetFileOffset
                                                   vectorcast_initialize_io_stdio
           ENTRY                   ADDRESS         REF BY
           =====                   =======         ======
           vcast_file_table        000FB468 
    -------------------------------------------------------------------------
NEAR_I
  Relative segment, address: 000FAF14 - 000FAF15 (0x2 bytes), align: 1
  Segment part 30.            Intra module refs:   GetFile
                                                   GetFileFromName
                                                   GetFileOffsets
                                                   GetIdNumber
                                                   vcast_get_internal_fileid
                                                   vectorcast_initialize_io_stdio
                                                   vectorcast_local_print_string_stdio
           ENTRY                   ADDRESS         REF BY
           =====                   =======         ======
           NumFileTableEntries     000FAF14 
    -------------------------------------------------------------------------
NEAR_Z
  Relative segment, address: 000FB46A - 000FB491 (0x28 bytes), align: 1
  Segment part 32.            Intra module refs:   GetFileOffsets
                                                   SetFileOffset
           ENTRY                   ADDRESS         REF BY
           =====                   =======         ======
           vcast_file_offsets      000FB46A 
    -------------------------------------------------------------------------
NEAR_Z
  Relative segment, address: 000FB492 - 000FB493 (0x2 bytes), align: 1
  Segment part 33.            Intra module refs:   vectorcast_initialize_io_stdio
           ENTRY                   ADDRESS         REF BY
           =====                   =======         ======
           fileIdCounter           000FB492 
    -------------------------------------------------------------------------
NEAR_CONST
  Relative segment, address: 000F32EE - 000F32FB (0xe bytes), align: 1
  Segment part 34.            Intra module refs:   vcast_get_internal_fileid
                                                   vectorcast_local_print_string_stdio
           ENTRY                   ADDRESS         REF BY
           =====                   =======         ======
           vcast_internal_file_names
                                   000F32EE 
    -------------------------------------------------------------------------
<XCODE> 1 (was XCODE)
  Relative segment, address: 00001E38 - 00001E7F (0x48 bytes), align: 0
  Segment part 51.            Intra module refs:   AdvanceCurrentLine
                                                   GetCurrentLine
                                                   vectorcast_fopen
           LOCAL                   ADDRESS         
           =====                   =======         
           readLengthAndStringFromInputDataArray
                                   00001E38 
               CSTACK = 00000000 ( 00000004 )
    -------------------------------------------------------------------------
<XCODE> 1 (was XCODE)
  Relative segment, address: 00001E80 - 00001EC1 (0x42 bytes), align: 0
  Segment part 52.            Intra module refs:   AdvanceCurrentLine
                                                   GetCurrentLine
                                                   ResetCurrentLine
                                                   vectorcast_fopen
           ENTRY                   ADDRESS         REF BY
           =====                   =======         ======
           GetFileOffsets          00001E80 
               CSTACK = 00000000 ( 00000004 )
    -------------------------------------------------------------------------
<XCODE> 1 (was XCODE)
  Relative segment, address: 00001EC2 - 00001EE9 (0x28 bytes), align: 0
  Segment part 53.            Intra module refs:   AdvanceCurrentLine
                                                   ResetCurrentLine
                                                   vectorcast_fopen
           ENTRY                   ADDRESS         REF BY
           =====                   =======         ======
           SetFileOffset           00001EC2 
               CSTACK = 00000000 ( 00000004 )
    -------------------------------------------------------------------------
<XCODE> 1 (was XCODE)
  Relative segment, address: 00001EEA - 00001F28 (0x3f bytes), align: 0
  Segment part 57.            Intra module refs:   vectorcast_fopen
           ENTRY                   ADDRESS         REF BY
           =====                   =======         ======
           vcast_get_internal_fileid
                                   00001EEA 
               CSTACK = 00000000 ( 0000000A )
    -------------------------------------------------------------------------
NEAR_Z
  Relative segment, address: 000FB494 - 000FB4D3 (0x40 bytes), align: 1
  Segment part 37.            Intra module refs:   vectorcast_initialize_io_stdio
                                                   vectorcast_local_print_string_stdio
           ENTRY                   ADDRESS         REF BY
           =====                   =======         ======
           totalStringToPrint      000FB494 
    -------------------------------------------------------------------------
<XCODE> 1 (was XCODE)
  Relative segment, address: 00001F29 - 00001F42 (0x1a bytes), align: 0
  Segment part 58.            Intra module refs:   GetCurrentLine
           ENTRY                   ADDRESS         REF BY
           =====                   =======         ======
           StartsNewFile           00001F29 
               calls direct
               CSTACK = 00000000 ( 00000004 )
    -------------------------------------------------------------------------
<XCODE> 1 (was XCODE)
  Relative segment, address: 00001F43 - 00001F5C (0x1a bytes), align: 0
  Segment part 59.            Intra module refs:   GetCurrentLine
           ENTRY                   ADDRESS         REF BY
           =====                   =======         ======
           EndOfInput              00001F43 
               calls direct
               CSTACK = 00000000 ( 00000004 )
    -------------------------------------------------------------------------
<XCODE> 1 (was XCODE)
  Relative segment, address: 00001F5D - 00001FEB (0x8f bytes), align: 0
  Segment part 60.            Intra module refs:   vectorcast_feof
                                                   vectorcast_fgets
           ENTRY                   ADDRESS         REF BY
           =====                   =======         ======
           GetCurrentLine          00001F5D 
               calls direct
               CSTACK = 00000000 ( 0000000C )
    -------------------------------------------------------------------------
<XCODE> 1 (was XCODE)
  Relative segment, address: 00001FEC - 00002035 (0x4a bytes), align: 0
  Segment part 61.            Intra module refs:   vectorcast_fgets
           ENTRY                   ADDRESS         REF BY
           =====                   =======         ======
           AdvanceCurrentLine      00001FEC 
               calls direct
               CSTACK = 00000000 ( 0000000C )
    -------------------------------------------------------------------------
<XCODE> 1 (was XCODE)
  Relative segment, address: 00002036 - 00002061 (0x2c bytes), align: 0
  Segment part 62.            Intra module refs:   vectorcast_fclose
           ENTRY                   ADDRESS         REF BY
           =====                   =======         ======
           ResetCurrentLine        00002036 
               calls direct
               CSTACK = 00000000 ( 0000000A )
    -------------------------------------------------------------------------
<XCODE> 1 (was XCODE)
  Relative segment, address: 00002062 - 0000206F (0xe bytes), align: 0
  Segment part 63.            Intra module refs:   vectorcast_local_print_string_stdio
           ENTRY                   ADDRESS         REF BY
           =====                   =======         ======
           GetFileName             00002062 
    -------------------------------------------------------------------------
<XCODE> 1 (was XCODE)
  Relative segment, address: 00002070 - 000020A7 (0x38 bytes), align: 0
  Segment part 64.            Intra module refs:   vectorcast_fopen
           ENTRY                   ADDRESS         REF BY
           =====                   =======         ======
           GetIdNumber             00002070 
               CSTACK = 00000000 ( 00000004 )
    -------------------------------------------------------------------------
<XCODE> 1 (was XCODE)
  Relative segment, address: 000020A8 - 000020F0 (0x49 bytes), align: 0
  Segment part 65.            Intra module refs:   vectorcast_fopen
           ENTRY                   ADDRESS         REF BY
           =====                   =======         ======
           GetFileFromName         000020A8 
               CSTACK = 00000000 ( 0000000A )
    -------------------------------------------------------------------------
<XCODE> 1 (was XCODE)
  Relative segment, address: 000020F1 - 00002111 (0x21 bytes), align: 0
  Segment part 66.            Intra module refs:   vectorcast_fclose
                                                   vectorcast_feof
                                                   vectorcast_fgets
                                                   vectorcast_local_print_string_stdio
           ENTRY                   ADDRESS         REF BY
           =====                   =======         ======
           GetFile                 000020F1 
               CSTACK = 00000000 ( 00000002 )
    -------------------------------------------------------------------------
<XCODE> 1 (was XCODE)
  Relative segment, address: 00002112 - 00002116 (0x5 bytes), align: 0
  Segment part 67.            Intra module refs:   vectorcast_print_string
                                                   vectorcast_write_vcast_end
           ENTRY                   ADDRESS         REF BY
           =====                   =======         ======
           vectorcast_fprint_string
                                   00002112        VCAST_TI_8_1 (B0000008)
                                                   VCAST_TI_8_2 (B0000008)
                                                   VCAST_TI_8_3 (B0000008)
                                                   VCAST_TI_8_4 (B0000008)
                                                   VCAST_TI_8_5 (B0000008)
                                                   VCAST_TI_9_1 (I0000009)
                                                   VCAST_TI_9_10 (I0000009)
                                                   VCAST_TI_9_111 (I0000009)
                                                   VCAST_TI_9_12 (I0000009)
                                                   VCAST_TI_9_14 (I0000009)
                                                   VCAST_TI_9_16 (I0000009)
                                                   VCAST_TI_9_18 (I0000009)
                                                   VCAST_TI_9_20 (I0000009)
                                                   VCAST_TI_9_22 (I0000009)
                                                   VCAST_TI_9_23 (I0000009)
                                                   VCAST_TI_9_24 (I0000009)
                                                   VCAST_TI_9_26 (I0000009)
                                                   VCAST_TI_9_28 (I0000009)
                                                   VCAST_TI_9_30 (I0000009)
                                                   VCAST_TI_9_31 (I0000009)
                                                   VCAST_TI_9_33 (I0000009)
                                                   VCAST_TI_9_35 (I0000009)
                                                   VCAST_TI_9_37 (I0000009)
                                                   VCAST_TI_9_39 (I0000009)
                                                   VCAST_TI_9_4 (I0000009)
                                                   VCAST_TI_9_40 (I0000009)
                                                   VCAST_TI_9_41 (I0000009)
                                                   VCAST_TI_9_42 (I0000009)
                                                   VCAST_TI_9_43 (I0000009)
                                                   VCAST_TI_9_44 (I0000009)
                                                   VCAST_TI_9_45 (I0000009)
                                                   VCAST_TI_9_49 (I0000009)
                                                   VCAST_TI_9_50 (I0000009)
                                                   VCAST_TI_9_53 (I0000009)
                                                   VCAST_TI_9_54 (I0000009)
                                                   VCAST_TI_9_6 (I0000009)
                                                   VCAST_TI_9_63 (I0000009)
                                                   VCAST_TI_9_64 (I0000009)
                                                   VCAST_TI_9_65 (I0000009)
                                                   VCAST_TI_9_68 (I0000009)
                                                   VCAST_TI_9_7 (I0000009)
                                                   VCAST_TI_9_72 (I0000009)
                                                   VCAST_TI_9_74 (I0000009)
                                                   VCAST_TI_9_77 (I0000009)
                                                   VCAST_TI_9_79 (I0000009)
                                                   VCAST_TI_9_8 (I0000009)
                                                   VCAST_TI_9_80 (I0000009)
                                                   VCAST_TI_9_81 (I0000009)
                                                   VCAST_TI_BITFIELD (B0000001)
                                                   VCAST_TI_RANGE_DATA_8 (B0000008)
                                                   VCAST_TI_RANGE_DATA_9 (I0000009)
                                                   VCAST_TI_STRING (B0000001)
                                                   VCAST_driver_termination (S0000003)
                                                   vCAST_RUN_DATA_IF (B0000001)
                                                   vCAST_SET_HISTORY_FLAGS (B0000002)
               calls direct
    -------------------------------------------------------------------------
<XCODE> 1 (was XCODE)
  Relative segment, address: 00002117 - 00002153 (0x3d bytes), align: 0
  Segment part 68.
           ENTRY                   ADDRESS         REF BY
           =====                   =======         ======
           vectorcast_fprint_string_with_length
                                   00002117        VCAST_TI_STRING (B0000001)
               calls direct
               CSTACK = 00000000 ( 00000008 )
    -------------------------------------------------------------------------
<XCODE> 1 (was XCODE)
  Relative segment, address: 00002154 - 00002164 (0x11 bytes), align: 0
  Segment part 69.            Intra module refs:   vectorcast_fprint_char
                                                   vectorcast_fprint_char_hex
                                                   vectorcast_fprint_char_octl
           ENTRY                   ADDRESS         REF BY
           =====                   =======         ======
           vectorcast_fprint_string_with_cr
                                   00002154        VCAST_SLOT_SEPARATOR (B0000002)
                                                   VCAST_TI_STRING (B0000001)
                                                   VCAST_WRITE_FN_CALL_ID (B0000002)
                                                   VCAST_WRITE_MCDC_ID (B0000002)
                                                   VCAST_WRITE_OPTIMIZED_MCDC_ID (B0000002)
                                                   VCAST_WRITE_STATEMENT_ID (B0000002)
                                                   VCAST_WRITE_TO_INST_FILE (B0000002)
                                                   VCAST_driver_termination (S0000003)
                                                   vCAST_SET_HISTORY_FLAGS (B0000002)
                                                   vcast_fatal_error (B0000002)
               calls direct
               CSTACK = 00000000 ( 00000002 )
    -------------------------------------------------------------------------
<XCODE> 1 (was XCODE)
  Relative segment, address: 00002165 - 00002171 (0xd bytes), align: 0
  Segment part 70.
           ENTRY                   ADDRESS         REF BY
           =====                   =======         ======
           vectorcast_print_string
                                   00002165        VCAST_DRIVER_9 (I0000009)
                                                   VCAST_driver_termination (S0000003)
                                                   VCAST_malloc (B0000002)
               calls direct
               CSTACK = 00000000 ( 00000002 )
    -------------------------------------------------------------------------
<XCODE> 1 (was XCODE)
  Relative segment, address: 00002172 - 00002191 (0x20 bytes), align: 0
  Segment part 71.            Intra module refs:   vectorcast_print_signed
           ENTRY                   ADDRESS         REF BY
           =====                   =======         ======
           vcast_signed_to_string
                                   00002172        vCAST_SET_FLOAT_FORMAT (B0000002)
               calls direct
               CSTACK = 00000004 ( 00000008 )
    -------------------------------------------------------------------------
<XCODE> 1 (was XCODE)
  Relative segment, address: 00002192 - 000021B1 (0x20 bytes), align: 0
  Segment part 72.            Intra module refs:   vectorcast_print_unsigned
           ENTRY                   ADDRESS         REF BY
           =====                   =======         ======
           vcast_unsigned_to_string
                                   00002192        vCAST_OPEN_E0_FILE (B0000002)
               calls direct
               CSTACK = 00000004 ( 00000008 )
    -------------------------------------------------------------------------
<XCODE> 1 (was XCODE)
  Relative segment, address: 000021B2 - 000021DA (0x29 bytes), align: 0
  Segment part 73.            Intra module refs:   vectorcast_fprint_char_hex
                                                   vectorcast_fprint_char_octl
           ENTRY                   ADDRESS         REF BY
           =====                   =======         ======
           vcast_char_to_based_string
                                   000021B2        vcast_unconvert_char_hex (B0000001)
                                                   vcast_unconvert_char_oct (B0000001)
               calls direct
               CSTACK = 00000000 ( 00000004 )
    -------------------------------------------------------------------------
<XCODE> 1 (was XCODE)
  Relative segment, address: 000021DB - 00002205 (0x2b bytes), align: 0
  Segment part 74.            Intra module refs:   vectorcast_fprint_integer
                                                   vectorcast_fprint_long_long
           ENTRY                   ADDRESS         REF BY
           =====                   =======         ======
           vectorcast_print_signed
                                   000021DB 
               calls direct
               CSTACK = 00000004 ( 00000048 )
    -------------------------------------------------------------------------
<XCODE> 1 (was XCODE)
  Relative segment, address: 00002206 - 00002230 (0x2b bytes), align: 0
  Segment part 75.            Intra module refs:   vectorcast_fprint_unsigned_integer
                                                   vectorcast_fprint_unsigned_long
                                                   vectorcast_fprint_unsigned_long_long
           ENTRY                   ADDRESS         REF BY
           =====                   =======         ======
           vectorcast_print_unsigned
                                   00002206 
               calls direct
               CSTACK = 00000004 ( 00000048 )
    -------------------------------------------------------------------------
<XCODE> 1 (was XCODE)
  Relative segment, address: 00002231 - 00002241 (0x11 bytes), align: 0
  Segment part 77.
           ENTRY                   ADDRESS         REF BY
           =====                   =======         ======
           vectorcast_fprint_integer
                                   00002231        VCAST_TI_8_2 (B0000008)
                                                   VCAST_TI_8_4 (B0000008)
                                                   VCAST_TI_8_5 (B0000008)
                                                   VCAST_TI_9_111 (I0000009)
                                                   VCAST_TI_9_31 (I0000009)
                                                   VCAST_TI_9_37 (I0000009)
                                                   VCAST_TI_9_41 (I0000009)
                                                   VCAST_TI_9_43 (I0000009)
                                                   VCAST_TI_9_45 (I0000009)
                                                   VCAST_TI_9_49 (I0000009)
                                                   VCAST_TI_9_50 (I0000009)
                                                   VCAST_TI_9_54 (I0000009)
                                                   VCAST_TI_9_6 (I0000009)
                                                   VCAST_TI_9_63 (I0000009)
                                                   VCAST_TI_9_64 (I0000009)
                                                   VCAST_TI_9_65 (I0000009)
                                                   VCAST_TI_9_68 (I0000009)
                                                   VCAST_TI_9_72 (I0000009)
                                                   VCAST_TI_9_74 (I0000009)
                                                   VCAST_TI_9_77 (I0000009)
                                                   VCAST_TI_9_79 (I0000009)
                                                   VCAST_TI_9_8 (I0000009)
                                                   VCAST_TI_9_80 (I0000009)
                                                   VCAST_TI_9_81 (I0000009)
                                                   VCAST_TI_RANGE_DATA_8 (B0000008)
                                                   VCAST_TI_RANGE_DATA_9 (I0000009)
                                                   VCAST_TI_STRING (B0000001)
                                                   VCAST_driver_termination (S0000003)
                                                   vCAST_SET_HISTORY_FLAGS (B0000002)
               calls direct
               CSTACK = 00000000 ( 00000006 )
    -------------------------------------------------------------------------
<XCODE> 1 (was XCODE)
  Relative segment, address: 00002242 - 0000225C (0x1b bytes), align: 0
  Segment part 79.
           ENTRY                   ADDRESS         REF BY
           =====                   =======         ======
           vectorcast_fprint_long_long
                                   00002242        VCAST_TI_BITFIELD (B0000001)
               calls direct
               CSTACK = 00000004 ( 00000008 )
    -------------------------------------------------------------------------
<XCODE> 1 (was XCODE)
  Relative segment, address: 0000225D - 0000226A (0xe bytes), align: 0
  Segment part 81.
           ENTRY                   ADDRESS         REF BY
           =====                   =======         ======
           vectorcast_fprint_unsigned_integer
                                   0000225D        VCAST_TI_9_22 (I0000009)
                                                   VCAST_TI_RANGE_DATA_9 (I0000009)
               calls direct
               CSTACK = 00000000 ( 00000006 )
    -------------------------------------------------------------------------
<XCODE> 1 (was XCODE)
  Relative segment, address: 0000226B - 00002285 (0x1b bytes), align: 0
  Segment part 82.
           ENTRY                   ADDRESS         REF BY
           =====                   =======         ======
           vectorcast_fprint_unsigned_long
                                   0000226B        VCAST_TI_9_39 (I0000009)
                                                   VCAST_TI_RANGE_DATA_9 (I0000009)
               calls direct
               CSTACK = 00000004 ( 00000008 )
    -------------------------------------------------------------------------
<XCODE> 1 (was XCODE)
  Relative segment, address: 00002286 - 000022A0 (0x1b bytes), align: 0
  Segment part 83.
           ENTRY                   ADDRESS         REF BY
           =====                   =======         ======
           vectorcast_fprint_unsigned_long_long
                                   00002286        VCAST_TI_BITFIELD (B0000001)
               calls direct
               CSTACK = 00000004 ( 00000008 )
    -------------------------------------------------------------------------
<XCODE> 1 (was XCODE)
  Relative segment, address: 000022A1 - 000022B6 (0x16 bytes), align: 0
  Segment part 84.
           ENTRY                   ADDRESS         REF BY
           =====                   =======         ======
           vectorcast_fprint_char
                                   000022A1        VCAST_TI_8_1 (B0000008)
               calls direct
               CSTACK = 00000000 ( 00000004 )
    -------------------------------------------------------------------------
<XCODE> 1 (was XCODE)
  Relative segment, address: 000022B7 - 000022D1 (0x1b bytes), align: 0
  Segment part 85.
           ENTRY                   ADDRESS         REF BY
           =====                   =======         ======
           vectorcast_fprint_char_hex
                                   000022B7        VCAST_TI_8_1 (B0000008)
               calls direct
               CSTACK = 00000000 ( 0000000C )
    -------------------------------------------------------------------------
<XCODE> 1 (was XCODE)
  Relative segment, address: 000022D2 - 000022EC (0x1b bytes), align: 0
  Segment part 86.
           ENTRY                   ADDRESS         REF BY
           =====                   =======         ======
           vectorcast_fprint_char_octl
                                   000022D2        VCAST_TI_8_1 (B0000008)
               calls direct
               CSTACK = 00000000 ( 0000000C )
    -------------------------------------------------------------------------
<XCODE> 1 (was XCODE)
  Relative segment, address: 000022ED - 00002317 (0x2b bytes), align: 0
  Segment part 87.
           ENTRY                   ADDRESS         REF BY
           =====                   =======         ======
           vectorcast_fprint_long_float
                                   000022ED        VCAST_TI_8_3 (B0000008)
                                                   VCAST_TI_RANGE_DATA_8 (B0000008)
               calls direct
               CSTACK = 00000004 ( 00000048 )
    -------------------------------------------------------------------------
<XCODE> 1 (was XCODE)
  Relative segment, address: 00002318 - 0000231C (0x5 bytes), align: 0
  Segment part 90.
           ENTRY                   ADDRESS         REF BY
           =====                   =======         ======
           vectorcast_initialize_io
                                   00002318        main (S0000003)
               calls direct
    -------------------------------------------------------------------------
<XCODE> 1 (was XCODE)
  Relative segment, address: 0000231D - 0000233D (0x21 bytes), align: 0
  Segment part 91.
           ENTRY                   ADDRESS         REF BY
           =====                   =======         ======
           vectorcast_write_vcast_end
                                   0000231D        vCAST_WRITE_END_FILE (B0000002)
               calls direct
               CSTACK = 00000000 ( 00000004 )
    -------------------------------------------------------------------------
<XCODE> 1 (was XCODE)
  Relative segment, address: 0000233E - 00002342 (0x5 bytes), align: 0
  Segment part 92.            Intra module refs:   vectorcast_fprint_long_float
                                                   vectorcast_fprint_string
                                                   vectorcast_fprint_string_with_cr
                                                   vectorcast_fprint_string_with_length
                                                   vectorcast_print_signed
                                                   vectorcast_print_unsigned
           LOCAL                   ADDRESS         
           =====                   =======         
           vectorcast_local_print_string
                                   0000233E 
               calls direct
    -------------------------------------------------------------------------
<XCODE> 1 (was XCODE)
  Relative segment, address: 00002343 - 000023AE (0x6c bytes), align: 0
  Segment part 93.
           ENTRY                   ADDRESS         REF BY
           =====                   =======         ======
           vectorcast_readline     00002343        VCAST_READ_TESTORDR_LINE (B0000002)
                                                   vCAST_READ_COMMAND_DATA (B0000002)
                                                   vCAST_READ_COMMAND_DATA_FOR_ONE_PARAM (B0000002)
                                                   vCAST_READ_COMMAND_DATA_FOR_USER_GLOBALS (B0000002)
                                                   vCAST_STORE_GLOBAL_ASCII_DATA (B0000002)
                                                   vCAST_STORE_PARAMETER_ASCII_DATA (B0000002)
               calls direct
               CSTACK = 00000000 ( 00000008 )
    -------------------------------------------------------------------------
<XCODE> 1 (was XCODE)
  Relative segment, address: 000023AF - 000023B0 (0x2 bytes), align: 0
  Segment part 94.
           ENTRY                   ADDRESS         REF BY
           =====                   =======         ======
           vectorcast_fflush       000023AF        vCAST_SET_HISTORY_FLAGS (B0000002)
    -------------------------------------------------------------------------
<XCODE> 1 (was XCODE)
  Relative segment, address: 000023B1 - 000023D0 (0x20 bytes), align: 0
  Segment part 95.            Intra module refs:   vectorcast_fgets
           ENTRY                   ADDRESS         REF BY
           =====                   =======         ======
           vectorcast_feof         000023B1        vCAST_READ_COMMAND_DATA (B0000002)
                                                   vCAST_READ_COMMAND_DATA_FOR_ONE_PARAM (B0000002)
                                                   vCAST_READ_COMMAND_DATA_FOR_USER_GLOBALS (B0000002)
                                                   vCAST_READ_NEXT_ORDER (B0000002)
                                                   vCAST_STORE_GLOBAL_ASCII_DATA (B0000002)
                                                   vCAST_STORE_PARAMETER_ASCII_DATA (B0000002)
               calls direct
               CSTACK = 00000000 ( 00000044 )
    -------------------------------------------------------------------------
<XCODE> 1 (was XCODE)
  Relative segment, address: 000023D1 - 00002428 (0x58 bytes), align: 0
  Segment part 96.            Intra module refs:   vectorcast_initialize_io
           LOCAL                   ADDRESS         
           =====                   =======         
           vectorcast_initialize_io_stdio
                                   000023D1 
               calls direct
               CSTACK = 00000000 ( 00000042 )
    -------------------------------------------------------------------------
<XCODE> 1 (was XCODE)
  Relative segment, address: 00002429 - 00002534 (0x10c bytes), align: 0
  Segment part 97.            Intra module refs:   vectorcast_local_print_string
           LOCAL                   ADDRESS         
           =====                   =======         
           vectorcast_local_print_string_stdio
                                   00002429 
               calls direct
               CSTACK = 00000000 ( 0000000A )
    -------------------------------------------------------------------------
<XCODE> 1 (was XCODE)
  Relative segment, address: 00002535 - 00002536 (0x2 bytes), align: 0
  Segment part 98.            Intra module refs:   vectorcast_write_vcast_end
           ENTRY                   ADDRESS         REF BY
           =====                   =======         ======
           vcast_check_for_dump_buffer
                                   00002535 
    -------------------------------------------------------------------------
<XCODE> 1 (was XCODE)
  Relative segment, address: 00002537 - 00002542 (0xc bytes), align: 0
  Segment part 99.            Intra module refs:   vectorcast_local_print_string_stdio
           ENTRY                   ADDRESS         REF BY
           =====                   =======         ======
           vectorcast_write_to_std_out
                                   00002537        VCAST_driver_termination (S0000003)
               calls direct
               CSTACK = 00000000 ( 00000002 )
    -------------------------------------------------------------------------
<XCODE> 1 (was XCODE)
  Relative segment, address: 00002543 - 00002575 (0x33 bytes), align: 0
  Segment part 100.           Intra module refs:   vectorcast_read_from_std_in
           ENTRY                   ADDRESS         REF BY
           =====                   =======         ======
           StripReturn             00002543 
               calls direct
               CSTACK = 00000000 ( 00000004 )
    -------------------------------------------------------------------------
<XCODE> 1 (was XCODE)
  Relative segment, address: 00002576 - 000025A5 (0x30 bytes), align: 0
  Segment part 101.
           ENTRY                   ADDRESS         REF BY
           =====                   =======         ======
           vcast_get_filename      00002576        main (S0000003)
                                                   vCAST_CREATE_EVENT_FILE (B0000002)
                                                   vCAST_CREATE_HIST_FILE (B0000002)
                                                   vCAST_CREATE_INST_FILE (B0000002)
                                                   vCAST_ONE_SHOT_INIT (B0000004)
                                                   vCAST_RE_OPEN_HIST_FILE (B0000002)
                                                   vCAST_RUN_DATA_IF (B0000001)
    -------------------------------------------------------------------------
<XCODE> 1 (was XCODE)
  Relative segment, address: 000025A6 - 000025AC (0x7 bytes), align: 0
  Segment part 102.           Intra module refs:   vectorcast_initialize_io_stdio
           LOCAL                   ADDRESS         
           =====                   =======         
           vectorcast_read_from_std_in
                                   000025A6 
               calls direct
    -------------------------------------------------------------------------
<XCODE> 1 (was XCODE)
  Relative segment, address: 000025AD - 0000263D (0x91 bytes), align: 0
  Segment part 103.           Intra module refs:   vectorcast_write_vcast_end
           ENTRY                   ADDRESS         REF BY
           =====                   =======         ======
           vectorcast_fopen        000025AD        main (S0000003)
                                                   vCAST_CREATE_EVENT_FILE (B0000002)
                                                   vCAST_CREATE_HIST_FILE (B0000002)
                                                   vCAST_CREATE_INST_FILE (B0000002)
                                                   vCAST_ONE_SHOT_INIT (B0000004)
                                                   vCAST_OPEN_E0_FILE (B0000002)
                                                   vCAST_OPEN_HARNOPTS_FILE (B0000002)
                                                   vCAST_OPEN_TESTORDR_FILE (B0000002)
                                                   vCAST_READ_COMMAND_DATA (B0000002)
                                                   vCAST_READ_COMMAND_DATA_FOR_ONE_PARAM (B0000002)
                                                   vCAST_READ_COMMAND_DATA_FOR_USER_GLOBALS (B0000002)
                                                   vCAST_RE_OPEN_HIST_FILE (B0000002)
                                                   vCAST_RUN_DATA_IF (B0000001)
                                                   vcastSaveProfilingData (S0000003)
               calls direct
               CSTACK = 00000000 ( 00000010 )
    -------------------------------------------------------------------------
<XCODE> 1 (was XCODE)
  Relative segment, address: 0000263E - 00002648 (0xb bytes), align: 0
  Segment part 104.           Intra module refs:   vectorcast_write_vcast_end
           ENTRY                   ADDRESS         REF BY
           =====                   =======         ======
           vectorcast_fclose       0000263E        VCAST_driver_termination (S0000003)
                                                   main (S0000003)
                                                   vCAST_CLOSE_EVENT_FILE (B0000002)
                                                   vCAST_CLOSE_HIST_FILE (B0000002)
                                                   vCAST_CLOSE_HIST_FILE_FOR_EVENT (B0000002)
                                                   vCAST_CLOSE_INST_FILE (B0000002)
                                                   vCAST_ONE_SHOT_TERM (B0000004)
                                                   vCAST_OPEN_HARNOPTS_FILE (B0000002)
                                                   vCAST_READ_COMMAND_DATA (B0000002)
                                                   vCAST_READ_COMMAND_DATA_FOR_ONE_PARAM (B0000002)
                                                   vCAST_READ_COMMAND_DATA_FOR_USER_GLOBALS (B0000002)
                                                   vCAST_RUN_DATA_IF (B0000001)
                                                   vCAST_STORE_GLOBAL_ASCII_DATA (B0000002)
                                                   vCAST_STORE_PARAMETER_ASCII_DATA (B0000002)
                                                   vcastSaveProfilingData (S0000003)
               calls direct
    -------------------------------------------------------------------------
<XCODE> 1 (was XCODE)
  Relative segment, address: 00002649 - 00002674 (0x2c bytes), align: 0
  Segment part 105.           Intra module refs:   vectorcast_readline
           ENTRY                   ADDRESS         REF BY
           =====                   =======         ======
           vectorcast_fgets        00002649        vCAST_OPEN_HARNOPTS_FILE (B0000002)
                                                   vCAST_OPEN_TESTORDR_FILE (B0000002)
               calls direct
               CSTACK = 00000000 ( 00000004 )
    -------------------------------------------------------------------------
<XCODE> 1 (was XCODE)
  Relative segment, address: 00002675 - 000026AB (0x37 bytes), align: 0
  Segment part 106.
           ENTRY                   ADDRESS         REF BY
           =====                   =======         ======
           vectorcast_terminate_io
                                   00002675        vCAST_WRITE_END_FILE (B0000002)
               calls direct
               CSTACK = 00000000 ( 00000004 )
    -------------------------------------------------------------------------
NEAR_Z
  Relative segment, address: 000FB677 - 000FB677 (0x1 bytes), align: 0
  Segment part 38.            Intra module refs:   vectorcast_fprint_string_with_length
           ENTRY                   ADDRESS         REF BY
           =====                   =======         ======
           vCAST_FULL_STRINGS      000FB677        VCAST_TI_STRING (B0000001)
                                                   vCAST_RESET_HARNOPTS_FILE (B0000002)
                                                   vCAST_SET_TESTCASE_CONFIGURATION_OPTIONS (B0000002)
    -------------------------------------------------------------------------
NEAR_Z
  Relative segment, address: 000FB678 - 000FB678 (0x1 bytes), align: 0
  Segment part 39.
           ENTRY                   ADDRESS         REF BY
           =====                   =======         ======
           vCAST_HEX_NOTATION      000FB678        VCAST_TI_8_1 (B0000008)
                                                   VCAST_TI_STRING (B0000001)
                                                   vCAST_RESET_HARNOPTS_FILE (B0000002)
                                                   vCAST_SET_TESTCASE_CONFIGURATION_OPTIONS (B0000002)
    -------------------------------------------------------------------------
NEAR_Z
  Relative segment, address: 000FB679 - 000FB679 (0x1 bytes), align: 0
  Segment part 40.
           ENTRY                   ADDRESS         REF BY
           =====                   =======         ======
           vCAST_DO_COMBINATION_TESTING
                                   000FB679        vCAST_RESET_HARNOPTS_FILE (B0000002)
                                                   vCAST_SET_TESTCASE_CONFIGURATION_OPTIONS (B0000002)
    -------------------------------------------------------------------------
NEAR_Z
  Relative segment, address: 000FB4D4 - 000FB4D5 (0x2 bytes), align: 1
  Segment part 41.
           ENTRY                   ADDRESS         REF BY
           =====                   =======         ======
           VCAST_DEFAULT_FLOAT_PRECISION
                                   000FB4D4        vCAST_RESET_HARNOPTS_FILE (B0000002)
                                                   vCAST_SET_TESTCASE_CONFIGURATION_OPTIONS (B0000002)
    -------------------------------------------------------------------------
NEAR_Z
  Relative segment, address: 000FB4D6 - 000FB4D7 (0x2 bytes), align: 1
  Segment part 42.
           ENTRY                   ADDRESS         REF BY
           =====                   =======         ======
           VCAST_DEFAULT_FLOAT_FIELD_WIDTH
                                   000FB4D6        vCAST_RESET_HARNOPTS_FILE (B0000002)
                                                   vCAST_SET_TESTCASE_CONFIGURATION_OPTIONS (B0000002)
    -------------------------------------------------------------------------
NEAR_I
  Relative segment, address: 000FAF16 - 000FAF1D (0x8 bytes), align: 1
  Segment part 43.
           ENTRY                   ADDRESS         REF BY
           =====                   =======         ======
           VCAST_DEFAULT_FLOAT_FORMAT
                                   000FAF16        vCAST_RESET_HARNOPTS_FILE (B0000002)
                                                   vCAST_SET_TESTCASE_CONFIGURATION_OPTIONS (B0000002)
    -------------------------------------------------------------------------
NEAR_Z
  Relative segment, address: 000FB4D8 - 000FB4D9 (0x2 bytes), align: 1
  Segment part 45.
           ENTRY                   ADDRESS         REF BY
           =====                   =======         ======
           VCAST_FLOAT_PRECISION   000FB4D8        vCAST_RESET_HARNOPTS_FILE (B0000002)
                                                   vCAST_SET_TESTCASE_CONFIGURATION_OPTIONS (B0000002)
    -------------------------------------------------------------------------
NEAR_Z
  Relative segment, address: 000FB4DA - 000FB4DB (0x2 bytes), align: 1
  Segment part 46.
           ENTRY                   ADDRESS         REF BY
           =====                   =======         ======
           VCAST_FLOAT_FIELD_WIDTH
                                   000FB4DA        vCAST_RESET_HARNOPTS_FILE (B0000002)
                                                   vCAST_SET_TESTCASE_CONFIGURATION_OPTIONS (B0000002)
    -------------------------------------------------------------------------
NEAR_Z
  Relative segment, address: 000FB4DC - 000FB4E3 (0x8 bytes), align: 1
  Segment part 47.            Intra module refs:   vcast_float_to_string
           ENTRY                   ADDRESS         REF BY
           =====                   =======         ======
           VCAST_FLOAT_FORMAT      000FB4DC        vCAST_RESET_HARNOPTS_FILE (B0000002)
                                                   vCAST_SET_TESTCASE_CONFIGURATION_OPTIONS (B0000002)
    -------------------------------------------------------------------------
NEAR_Z
  Relative segment, address: 000FB4E4 - 000FB4E7 (0x4 bytes), align: 1
  Segment part 48.            Intra module refs:   VCAST_GET_NEGATIVE_INFINITY
                                                   VCAST_GET_POSITIVE_INFINITY
                                                   VCAST_GET_QUIET_NAN
           ENTRY                   ADDRESS         REF BY
           =====                   =======         ======
           VCAST_globalZero        000FB4E4 
    -------------------------------------------------------------------------
<XCODE> 1 (was XCODE)
  Relative segment, address: 000026AC - 000026BB (0x10 bytes), align: 0
  Segment part 107.
           ENTRY                   ADDRESS         REF BY
           =====                   =======         ======
           VCAST_GET_QUIET_NAN     000026AC        VCAST_TI_8_3 (B0000008)
               CSTACK = 00000000 ( 00000004 )
    -------------------------------------------------------------------------
<XCODE> 1 (was XCODE)
  Relative segment, address: 000026BC - 000026CD (0x12 bytes), align: 0
  Segment part 108.
           ENTRY                   ADDRESS         REF BY
           =====                   =======         ======
           VCAST_GET_NEGATIVE_INFINITY
                                   000026BC        VCAST_TI_8_3 (B0000008)
               CSTACK = 00000000 ( 00000004 )
    -------------------------------------------------------------------------
<XCODE> 1 (was XCODE)
  Relative segment, address: 000026CE - 000026DF (0x12 bytes), align: 0
  Segment part 109.
           ENTRY                   ADDRESS         REF BY
           =====                   =======         ======
           VCAST_GET_POSITIVE_INFINITY
                                   000026CE        VCAST_TI_8_3 (B0000008)
               CSTACK = 00000000 ( 00000004 )
    -------------------------------------------------------------------------
<XCODE> 1 (was XCODE)
  Relative segment, address: 000026E0 - 000026FF (0x20 bytes), align: 0
  Segment part 110.           Intra module refs:   vectorcast_fprint_long_float
           ENTRY                   ADDRESS         REF BY
           =====                   =======         ======
           vcast_float_to_string   000026E0 
               calls direct
               CSTACK = 00000004 ( 00000008 )
    -------------------------------------------------------------------------
NEAR_ID
  Relative segment, address: 00000BD0 - 00000BD1 (0x2 bytes), align: 1
  Segment part 26.            Intra module refs:   vcastLengthBytes
    -------------------------------------------------------------------------
NEAR_ID
  Relative segment, address: 00000BD2 - 00000BD3 (0x2 bytes), align: 1
  Segment part 31.            Intra module refs:   NumFileTableEntries
    -------------------------------------------------------------------------
NEAR_ID
  Relative segment, address: 00000BD4 - 00000BDB (0x8 bytes), align: 1
  Segment part 44.            Intra module refs:   VCAST_DEFAULT_FLOAT_FORMAT
    -------------------------------------------------------------------------
NEAR_CONST
  Relative segment, address: 000F32FC - 000F3309 (0xe bytes), align: 1
  Segment part 2.             Intra module refs:   vcast_get_filename
                                                   vcast_internal_file_names
    -------------------------------------------------------------------------
NEAR_CONST
  Relative segment, address: 000F330A - 000F3317 (0xe bytes), align: 1
  Segment part 3.             Intra module refs:   vcast_get_filename
                                                   vcast_internal_file_names
    -------------------------------------------------------------------------
NEAR_CONST
  Relative segment, address: 000F3318 - 000F3325 (0xe bytes), align: 1
  Segment part 4.             Intra module refs:   vcast_get_filename
                                                   vcast_internal_file_names
    -------------------------------------------------------------------------
NEAR_CONST
  Relative segment, address: 000F3326 - 000F3333 (0xe bytes), align: 1
  Segment part 5.             Intra module refs:   vcast_get_filename
                                                   vcast_internal_file_names
    -------------------------------------------------------------------------
NEAR_CONST
  Relative segment, address: 000F3334 - 000F3341 (0xe bytes), align: 1
  Segment part 6.             Intra module refs:   vcast_get_filename
                                                   vcast_internal_file_names
    -------------------------------------------------------------------------
NEAR_CONST
  Relative segment, address: 000F3342 - 000F334F (0xe bytes), align: 1
  Segment part 7.             Intra module refs:   vcast_get_filename
                                                   vcast_internal_file_names
    -------------------------------------------------------------------------
NEAR_CONST
  Relative segment, address: 000F3350 - 000F3359 (0xa bytes), align: 1
  Segment part 8.             Intra module refs:   vcast_internal_file_names
                                                   vectorcast_write_vcast_end
    -------------------------------------------------------------------------
NEAR_CONST
  Relative segment, address: 000F335A - 000F3361 (0x8 bytes), align: 1
  Segment part 9.             Intra module refs:   StartsNewFile
    -------------------------------------------------------------------------
NEAR_CONST
  Relative segment, address: 000F3362 - 000F3367 (0x6 bytes), align: 1
  Segment part 10.            Intra module refs:   EndOfInput
    -------------------------------------------------------------------------
NEAR_CONST
  Relative segment, address: 000F3368 - 000F3369 (0x2 bytes), align: 1
  Segment part 11.            Intra module refs:   GetFileName
                                                   vcast_get_filename
    -------------------------------------------------------------------------
NEAR_CONST
  Relative segment, address: 000F336A - 000F336B (0x2 bytes), align: 1
  Segment part 12.            Intra module refs:   vectorcast_fprint_string_with_length
    -------------------------------------------------------------------------
NEAR_CONST
  Relative segment, address: 000F336C - 000F336D (0x2 bytes), align: 1
  Segment part 13.            Intra module refs:   vectorcast_fprint_string_with_cr
                                                   vectorcast_local_print_string_stdio
    -------------------------------------------------------------------------
NEAR_CONST
  Relative segment, address: 000F336E - 000F3371 (0x4 bytes), align: 1
  Segment part 14.            Intra module refs:   vcast_signed_to_string
    -------------------------------------------------------------------------
NEAR_CONST
  Relative segment, address: 000F3372 - 000F3375 (0x4 bytes), align: 1
  Segment part 15.            Intra module refs:   vcast_unsigned_to_string
    -------------------------------------------------------------------------
NEAR_CONST
  Relative segment, address: 000F3376 - 000F337B (0x6 bytes), align: 1
  Segment part 16.            Intra module refs:   vcast_char_to_based_string
    -------------------------------------------------------------------------
NEAR_CONST
  Relative segment, address: 000F337C - 000F337F (0x4 bytes), align: 1
  Segment part 17.            Intra module refs:   vcast_char_to_based_string
    -------------------------------------------------------------------------
NEAR_CONST
  Relative segment, address: 000F3380 - 000F3381 (0x2 bytes), align: 1
  Segment part 18.            Intra module refs:   vectorcast_fopen
                                                   vectorcast_write_vcast_end
    -------------------------------------------------------------------------
NEAR_CONST
  Relative segment, address: 000F3382 - 000F3387 (0x6 bytes), align: 1
  Segment part 19.            Intra module refs:   vectorcast_write_vcast_end
    -------------------------------------------------------------------------
NEAR_CONST
  Relative segment, address: 000F3388 - 000F3389 (0x2 bytes), align: 1
  Segment part 20.            Intra module refs:   vectorcast_local_print_string_stdio
    -------------------------------------------------------------------------
NEAR_CONST
  Relative segment, address: 000F338A - 000F338D (0x4 bytes), align: 1
  Segment part 21.            Intra module refs:   vectorcast_write_to_std_out
    -------------------------------------------------------------------------
NEAR_CONST
  Relative segment, address: 000F338E - 000F338F (0x2 bytes), align: 1
  Segment part 22.            Intra module refs:   vectorcast_fopen
    -------------------------------------------------------------------------
NEAR_CONST
  Relative segment, address: 000F3390 - 000F3391 (0x2 bytes), align: 1
  Segment part 23.            Intra module refs:   vectorcast_fopen
    -------------------------------------------------------------------------
NEAR_CONST_ID
  Relative segment, address: 000032EE - 000032FB (0xe bytes), align: 1
  Segment part 111.           Intra module refs:   vcast_internal_file_names
    -------------------------------------------------------------------------
NEAR_CONST_ID
  Relative segment, address: 000032FC - 00003309 (0xe bytes), align: 1
  Segment part 112.           Intra module refs:   Segment part 2
    -------------------------------------------------------------------------
NEAR_CONST_ID
  Relative segment, address: 0000330A - 00003317 (0xe bytes), align: 1
  Segment part 113.           Intra module refs:   Segment part 3
    -------------------------------------------------------------------------
NEAR_CONST_ID
  Relative segment, address: 00003318 - 00003325 (0xe bytes), align: 1
  Segment part 114.           Intra module refs:   Segment part 4
    -------------------------------------------------------------------------
NEAR_CONST_ID
  Relative segment, address: 00003326 - 00003333 (0xe bytes), align: 1
  Segment part 115.           Intra module refs:   Segment part 5
    -------------------------------------------------------------------------
NEAR_CONST_ID
  Relative segment, address: 00003334 - 00003341 (0xe bytes), align: 1
  Segment part 116.           Intra module refs:   Segment part 6
    -------------------------------------------------------------------------
NEAR_CONST_ID
  Relative segment, address: 00003342 - 0000334F (0xe bytes), align: 1
  Segment part 117.           Intra module refs:   Segment part 7
    -------------------------------------------------------------------------
NEAR_CONST_ID
  Relative segment, address: 00003350 - 00003359 (0xa bytes), align: 1
  Segment part 118.           Intra module refs:   Segment part 8
    -------------------------------------------------------------------------
NEAR_CONST_ID
  Relative segment, address: 0000335A - 00003361 (0x8 bytes), align: 1
  Segment part 119.           Intra module refs:   Segment part 9
    -------------------------------------------------------------------------
NEAR_CONST_ID
  Relative segment, address: 00003362 - 00003367 (0x6 bytes), align: 1
  Segment part 120.           Intra module refs:   Segment part 10
    -------------------------------------------------------------------------
NEAR_CONST_ID
  Relative segment, address: 00003368 - 00003369 (0x2 bytes), align: 1
  Segment part 121.           Intra module refs:   Segment part 11
    -------------------------------------------------------------------------
NEAR_CONST_ID
  Relative segment, address: 0000336A - 0000336B (0x2 bytes), align: 1
  Segment part 122.           Intra module refs:   Segment part 12
    -------------------------------------------------------------------------
NEAR_CONST_ID
  Relative segment, address: 0000336C - 0000336D (0x2 bytes), align: 1
  Segment part 123.           Intra module refs:   Segment part 13
    -------------------------------------------------------------------------
NEAR_CONST_ID
  Relative segment, address: 0000336E - 00003371 (0x4 bytes), align: 1
  Segment part 124.           Intra module refs:   Segment part 14
    -------------------------------------------------------------------------
NEAR_CONST_ID
  Relative segment, address: 00003372 - 00003375 (0x4 bytes), align: 1
  Segment part 125.           Intra module refs:   Segment part 15
    -------------------------------------------------------------------------
NEAR_CONST_ID
  Relative segment, address: 00003376 - 0000337B (0x6 bytes), align: 1
  Segment part 126.           Intra module refs:   Segment part 16
    -------------------------------------------------------------------------
NEAR_CONST_ID
  Relative segment, address: 0000337C - 0000337F (0x4 bytes), align: 1
  Segment part 127.           Intra module refs:   Segment part 17
    -------------------------------------------------------------------------
NEAR_CONST_ID
  Relative segment, address: 00003380 - 00003381 (0x2 bytes), align: 1
  Segment part 128.           Intra module refs:   Segment part 18
    -------------------------------------------------------------------------
NEAR_CONST_ID
  Relative segment, address: 00003382 - 00003387 (0x6 bytes), align: 1
  Segment part 129.           Intra module refs:   Segment part 19
    -------------------------------------------------------------------------
NEAR_CONST_ID
  Relative segment, address: 00003388 - 00003389 (0x2 bytes), align: 1
  Segment part 130.           Intra module refs:   Segment part 20
    -------------------------------------------------------------------------
NEAR_CONST_ID
  Relative segment, address: 0000338A - 0000338D (0x4 bytes), align: 1
  Segment part 131.           Intra module refs:   Segment part 21
    -------------------------------------------------------------------------
NEAR_CONST_ID
  Relative segment, address: 0000338E - 0000338F (0x2 bytes), align: 1
  Segment part 132.           Intra module refs:   Segment part 22
    -------------------------------------------------------------------------
NEAR_CONST_ID
  Relative segment, address: 00003390 - 00003391 (0x2 bytes), align: 1
  Segment part 133.           Intra module refs:   Segment part 23

    *************************************************************************

  FILE NAME : C:\Users\zhu1\Downloads\SW_Need_Change_Managemant\GEEA2.0\E4-2_SW\RLS_SYS_RLS_GP_RLXS_GEN5_DEV_APL_GEELY2.0_RLFS_FOR_E4_03\05_SwDev\01_SrcCode\Application\CustomerInterface\ModuleTest\1234\vcast_stdin_data.r87
  PROGRAM MODULE, NAME : vcast_stdin_data

  SEGMENTS IN THE MODULE
  ======================
NEAR_CONST
  Relative segment, address: 000F3392 - 000F33B5 (0x24 bytes), align: 1
  Segment part 3.
           ENTRY                   ADDRESS         REF BY
           =====                   =======         ======
           inputDataArrayTOC       000F3392        vectorcast_initialize_io_stdio (B0000007)
    -------------------------------------------------------------------------
NEAR_CONST
  Relative segment, address: 000F33B6 - 000F33B7 (0x2 bytes), align: 1
  Segment part 4.
           ENTRY                   ADDRESS         REF BY
           =====                   =======         ======
           isTwoByteLen            000F33B6        vectorcast_initialize_io_stdio (B0000007)
    -------------------------------------------------------------------------
NEAR_CONST
  Relative segment, address: 000F33B8 - 000F33B9 (0x2 bytes), align: 1
  Segment part 5.
           ENTRY                   ADDRESS         REF BY
           =====                   =======         ======
           NumInputFiles           000F33B8        vectorcast_initialize_io_stdio (B0000007)
    -------------------------------------------------------------------------
NEAR_CONST
  Relative segment, address: 000F33BA - 000F33BB (0x2 bytes), align: 1
  Segment part 6.
           ENTRY                   ADDRESS         REF BY
           =====                   =======         ======
           inputDataArray          000F33BA        vectorcast_initialize_io_stdio (B0000007)
    -------------------------------------------------------------------------
NEAR_CONST
  Relative segment, address: 000F33BC - 000F3439 (0x7e bytes), align: 1
  Segment part 2.             Intra module refs:   inputDataArray
    -------------------------------------------------------------------------
NEAR_CONST_ID
  Relative segment, address: 00003392 - 000033B5 (0x24 bytes), align: 1
  Segment part 7.             Intra module refs:   inputDataArrayTOC
    -------------------------------------------------------------------------
NEAR_CONST_ID
  Relative segment, address: 000033B6 - 000033B7 (0x2 bytes), align: 1
  Segment part 8.             Intra module refs:   isTwoByteLen
    -------------------------------------------------------------------------
NEAR_CONST_ID
  Relative segment, address: 000033B8 - 000033B9 (0x2 bytes), align: 1
  Segment part 9.             Intra module refs:   NumInputFiles
    -------------------------------------------------------------------------
NEAR_CONST_ID
  Relative segment, address: 000033BA - 000033BB (0x2 bytes), align: 1
  Segment part 10.            Intra module refs:   inputDataArray
    -------------------------------------------------------------------------
NEAR_CONST_ID
  Relative segment, address: 000033BC - 00003439 (0x7e bytes), align: 1
  Segment part 11.            Intra module refs:   Segment part 2

    *************************************************************************

  FILE NAME : C:\Users\zhu1\Downloads\SW_Need_Change_Managemant\GEEA2.0\E4-2_SW\RLS_SYS_RLS_GP_RLXS_GEN5_DEV_APL_GEELY2.0_RLFS_FOR_E4_03\05_SwDev\01_SrcCode\Application\CustomerInterface\ModuleTest\1234\B1_switch.r87
  PROGRAM MODULE, NAME : B1_switch

  SEGMENTS IN THE MODULE
  ======================
<XCODE> 2 (was XCODE)
  Relative segment, address: 0000E8AF - 0000ECC5 (0x417 bytes), align: 0
  Segment part 2.             Intra module refs:   Segment part 3
                                                   Segment part 4
           ENTRY                   ADDRESS         REF BY
           =====                   =======         ======
           vcast_B1_switch         0000E8AF        vCAST_RUN_DATA_IF (B0000001)
               calls direct
               CSTACK = 00000002 ( 00000002 )
    -------------------------------------------------------------------------
<FSWITCH> 1 (was FSWITCH)
  Relative segment, address: 000010E4 - 000010FF (0x1c bytes), align: 1
  Segment part 3.             Intra module refs:   vcast_B1_switch
    -------------------------------------------------------------------------
<FSWITCH> 1 (was FSWITCH)
  Relative segment, address: 00000DAA - 00000E3D (0x94 bytes), align: 1
  Segment part 4.             Intra module refs:   vcast_B1_switch

    *************************************************************************

  FILE NAME : C:\Users\zhu1\Downloads\SW_Need_Change_Managemant\GEEA2.0\E4-2_SW\RLS_SYS_RLS_GP_RLXS_GEN5_DEV_APL_GEELY2.0_RLFS_FOR_E4_03\05_SwDev\01_SrcCode\Application\CustomerInterface\ModuleTest\1234\B4_switch.r87
  PROGRAM MODULE, NAME : B4_switch

  SEGMENTS IN THE MODULE
  ======================
<XCODE> 2 (was XCODE)
  Relative segment, address: 0000F1EE - 0000F22B (0x3e bytes), align: 0
  Segment part 2.
           ENTRY                   ADDRESS         REF BY
           =====                   =======         ======
           vcast_B4_switch         0000F1EE        vCAST_USER_CODE (B0000004)
               calls direct
               CSTACK = 00000000 ( 00000006 )

    *************************************************************************

  FILE NAME : C:\Users\zhu1\Downloads\SW_Need_Change_Managemant\GEEA2.0\E4-2_SW\RLS_SYS_RLS_GP_RLXS_GEN5_DEV_APL_GEELY2.0_RLFS_FOR_E4_03\05_SwDev\01_SrcCode\Application\CustomerInterface\ModuleTest\1234\S3_switch.r87
  PROGRAM MODULE, NAME : S3_switch

  SEGMENTS IN THE MODULE
  ======================
<XCODE> 2 (was XCODE)
  Relative segment, address: 0000F2CA - 0000F2E8 (0x1f bytes), align: 0
  Segment part 2.
           ENTRY                   ADDRESS         REF BY
           =====                   =======         ======
           vcast_S3_switch         0000F2CA        main (S0000003)
               calls direct
               CSTACK = 00000002 ( 00000002 )

    *************************************************************************

  FILE NAME : C:\Users\zhu1\Downloads\SW_Need_Change_Managemant\GEEA2.0\E4-2_SW\RLS_SYS_RLS_GP_RLXS_GEN5_DEV_APL_GEELY2.0_RLFS_FOR_E4_03\05_SwDev\01_SrcCode\Application\CustomerInterface\ModuleTest\1234\I0000009.r87
  PROGRAM MODULE, NAME : I0000009

  SEGMENTS IN THE MODULE
  ======================
NEAR_A
  Relative segment, address: 000FFFD4 - 000FFFD5 (0x2 bytes), align: 0
  Segment part 1. ROOT        Intra module refs:   LightFunction
           ENTRY                   ADDRESS         REF BY
           =====                   =======         ======
           _A_MK2                  000FFFD4 
           LOCAL                   ADDRESS         
           =====                   =======         
           MK2                     000FFFD4 
           MK2H                    000FFFD5 
           MK2H_bit                000FFFD5 
           MK2L                    000FFFD4 
           MK2L_bit                000FFFD4 
    -------------------------------------------------------------------------
NEAR_Z
  Relative segment, address: 000FB67A - 000FB67A (0x1 bytes), align: 0
  Segment part 92.            Intra module refs:   ApplLinInit
                                                   CopyRLSData
                                                   GetLeWWS
                                                   GetLsWWS
                                                   RainFunction
                                                   StandByMode
                                                   VCAST_RUN_DATA_IF_9
           ENTRY                   ADDRESS         REF BY
           =====                   =======         ======
           uF_SCIFlags_mg          000FB67A 
    -------------------------------------------------------------------------
NEAR_Z
  Relative segment, address: 000FB67B - 000FB67B (0x1 bytes), align: 0
  Segment part 93.            Intra module refs:   VCAST_RUN_DATA_IF_9
           ENTRY                   ADDRESS         REF BY
           =====                   =======         ======
           rb_LIN_BIT_ERROR_COUNTER_g
                                   000FB67B 
    -------------------------------------------------------------------------
NEAR_Z
  Relative segment, address: 000FB67C - 000FB67C (0x1 bytes), align: 0
  Segment part 94.            Intra module refs:   VCAST_RUN_DATA_IF_9
           ENTRY                   ADDRESS         REF BY
           =====                   =======         ======
           rb_LIN_OVERTHEADERMAX_COUNTER_g
                                   000FB67C 
    -------------------------------------------------------------------------
NEAR_Z
  Relative segment, address: 000FB67D - 000FB67D (0x1 bytes), align: 0
  Segment part 95.            Intra module refs:   VCAST_RUN_DATA_IF_9
           ENTRY                   ADDRESS         REF BY
           =====                   =======         ======
           rb_LIN_CHECKSUMERROR_COUNTER_g
                                   000FB67D 
    -------------------------------------------------------------------------
NEAR_Z
  Relative segment, address: 000FB67E - 000FB67E (0x1 bytes), align: 0
  Segment part 96.            Intra module refs:   VCAST_RUN_DATA_IF_9
           ENTRY                   ADDRESS         REF BY
           =====                   =======         ======
           rb_LIN_OVERTFRAMEMAX_COUNTER_g
                                   000FB67E 
    -------------------------------------------------------------------------
NEAR_Z
  Relative segment, address: 000FB67F - 000FB67F (0x1 bytes), align: 0
  Segment part 97.            Intra module refs:   VCAST_RUN_DATA_IF_9
           ENTRY                   ADDRESS         REF BY
           =====                   =======         ======
           rb_LIN_NORESPONSE_COUNTER_g
                                   000FB67F 
    -------------------------------------------------------------------------
NEAR_Z
  Relative segment, address: 000FB680 - 000FB680 (0x1 bytes), align: 0
  Segment part 98.            Intra module refs:   VCAST_RUN_DATA_IF_9
           ENTRY                   ADDRESS         REF BY
           =====                   =======         ======
           rb_LIN_FRAMINGERROR_COUNTER_g
                                   000FB680 
    -------------------------------------------------------------------------
NEAR_Z
  Relative segment, address: 000FB681 - 000FB681 (0x1 bytes), align: 0
  Segment part 99.            Intra module refs:   ApplLinSlavePreCopy
                                                   GetLeWWS
                                                   RainFunction
                                                   VCAST_RUN_DATA_IF_9
           ENTRY                   ADDRESS         REF BY
           =====                   =======         ======
           uF_Communication_mg     000FB681 
    -------------------------------------------------------------------------
NEAR_Z
  Relative segment, address: 000FB682 - 000FB682 (0x1 bytes), align: 0
  Segment part 100.           Intra module refs:   VCAST_RUN_DATA_IF_9
           ENTRY                   ADDRESS         REF BY
           =====                   =======         ======
           uF_Butterfly_Flags_g    000FB682 
    -------------------------------------------------------------------------
NEAR_Z
  Relative segment, address: 000FB683 - 000FB683 (0x1 bytes), align: 0
  Segment part 101.           Intra module refs:   VCAST_RUN_DATA_IF_9
           ENTRY                   ADDRESS         REF BY
           =====                   =======         ======
           rb_LastLINErrorCode_g   000FB683 
    -------------------------------------------------------------------------
NEAR_Z
  Relative segment, address: 000FB4E8 - 000FB4E9 (0x2 bytes), align: 1
  Segment part 102.           Intra module refs:   GetLeWWS
                                                   VCAST_RUN_DATA_IF_9
           ENTRY                   ADDRESS         REF BY
           =====                   =======         ======
           rw_NoCommunicationCounter_g
                                   000FB4E8 
    -------------------------------------------------------------------------
NEAR_Z
  Relative segment, address: 000FB684 - 000FB684 (0x1 bytes), align: 0
  Segment part 103.           Intra module refs:   VCAST_RUN_DATA_IF_9
           ENTRY                   ADDRESS         REF BY
           =====                   =======         ======
           rb_intervaltime_rainSensorOff_g
                                   000FB684 
    -------------------------------------------------------------------------
NEAR_Z
  Relative segment, address: 000FB685 - 000FB685 (0x1 bytes), align: 0
  Segment part 104.           Intra module refs:   GetLeWWS
                                                   VCAST_RUN_DATA_IF_9
           ENTRY                   ADDRESS         REF BY
           =====                   =======         ======
           rb_Release_IntervalMarker_Update_g
                                   000FB685 
    -------------------------------------------------------------------------
NEAR_Z
  Relative segment, address: 000FB686 - 000FB686 (0x1 bytes), align: 0
  Segment part 105.           Intra module refs:   VCAST_RUN_DATA_IF_9
           LOCAL                   ADDRESS         
           =====                   =======         
           uF_StalkInPos_Flags_g   000FB686 
    -------------------------------------------------------------------------
NEAR_CONST
  Relative segment, address: 000F343A - 000F3441 (0x8 bytes), align: 1
  Segment part 106.           Intra module refs:   GetLeWWS
           LOCAL                   ADDRESS         
           =====                   =======         
           cab_PotistageMapping_mg
                                   000F343A 
    -------------------------------------------------------------------------
NEAR_Z
  Relative segment, address: 000FB687 - 000FB687 (0x1 bytes), align: 0
  Segment part 107.           Intra module refs:   GetLeWWS
                                                   VCAST_RUN_DATA_IF_9
           LOCAL                   ADDRESS         
           =====                   =======         
           rb_Verglasun_offenDebounce_mg
                                   000FB687 
    -------------------------------------------------------------------------
NEAR_Z
  Relative segment, address: 000FB688 - 000FB688 (0x1 bytes), align: 0
  Segment part 108.           Intra module refs:   GetLeWWS
                                                   StandByMode
                                                   VCAST_RUN_DATA_IF_9
           LOCAL                   ADDRESS         
           =====                   =======         
           rb_Verglasun_ClosedDebounce_mg
                                   000FB688 
    -------------------------------------------------------------------------
NEAR_Z
  Relative segment, address: 000FB4EA - 000FB4EB (0x2 bytes), align: 1
  Segment part 109.           Intra module refs:   GetLeWWS
                                                   StandByMode
                                                   VCAST_RUN_DATA_IF_9
           LOCAL                   ADDRESS         
           =====                   =======         
           rw_CommandCloseWindowTimout_mg
                                   000FB4EA 
    -------------------------------------------------------------------------
NEAR_Z
  Relative segment, address: 000FB689 - 000FB689 (0x1 bytes), align: 0
  Segment part 110.           Intra module refs:   GetLeWWS
                                                   VCAST_RUN_DATA_IF_9
           LOCAL                   ADDRESS         
           =====                   =======         
           rb_KL15_mg              000FB689 
    -------------------------------------------------------------------------
NEAR_Z
  Relative segment, address: 000FB68A - 000FB68A (0x1 bytes), align: 0
  Segment part 111.           Intra module refs:   ApplLinInit
                                                   LightFunction
                                                   VCAST_RUN_DATA_IF_9
           LOCAL                   ADDRESS         
           =====                   =======         
           rb_AnyErrorCounterDebounce_mg
                                   000FB68A 
    -------------------------------------------------------------------------
NEAR_Z
  Relative segment, address: 000FB4EC - 000FB4ED (0x2 bytes), align: 1
  Segment part 112.           Intra module refs:   ApplLinInit
                                                   RainFunction
                                                   VCAST_RUN_DATA_IF_9
           LOCAL                   ADDRESS         
           =====                   =======         
           rw_AfterRSWipeCounter_mg
                                   000FB4EC 
    -------------------------------------------------------------------------
NEAR_Z
  Relative segment, address: 000FB4EE - 000FB4EF (0x2 bytes), align: 1
  Segment part 113.           Intra module refs:   ApplLinInit
                                                   RainFunction
                                                   VCAST_RUN_DATA_IF_9
           LOCAL                   ADDRESS         
           =====                   =======         
           rw_AfterRSWipeCounterAlt_mg
                                   000FB4EE 
    -------------------------------------------------------------------------
NEAR_Z
  Relative segment, address: 000FB4F0 - 000FB4F1 (0x2 bytes), align: 1
  Segment part 114.           Intra module refs:   ApplLinInit
                                                   GetLeWWS
                                                   RainFunction
                                                   VCAST_RUN_DATA_IF_9
           LOCAL                   ADDRESS         
           =====                   =======         
           rw_AfterWWSWipeCounter_mg
                                   000FB4F0 
    -------------------------------------------------------------------------
NEAR_Z
  Relative segment, address: 000FB4F2 - 000FB4F3 (0x2 bytes), align: 1
  Segment part 115.           Intra module refs:   ApplLinInit
                                                   GetLeWWS
                                                   GetLsWWS
                                                   VCAST_RUN_DATA_IF_9
           LOCAL                   ADDRESS         
           =====                   =======         
           rw_WipeCommandTimOut_mg
                                   000FB4F2 
    -------------------------------------------------------------------------
NEAR_Z
  Relative segment, address: 000FB68B - 000FB68B (0x1 bytes), align: 0
  Segment part 116.           Intra module refs:   GetLeWWS
                                                   RainFunction
                                                   VCAST_RUN_DATA_IF_9
           LOCAL                   ADDRESS         
           =====                   =======         
           rb_IgnitionOndelay_mg   000FB68B 
    -------------------------------------------------------------------------
NEAR_Z
  Relative segment, address: 000FB68C - 000FB68C (0x1 bytes), align: 0
  Segment part 117.           Intra module refs:   CheckErrors
                                                   LightFunction
                                                   OutPutBrightnessValue
                                                   VCAST_RUN_DATA_IF_9
           LOCAL                   ADDRESS         
           =====                   =======         
           rb_Err_State_Light_Sens_mg
                                   000FB68C 
    -------------------------------------------------------------------------
NEAR_I
  Relative segment, address: 000FAF1E - 000FAF1F (0x2 bytes), align: 1
  Segment part 118.           Intra module refs:   GetLeWWS
                                                   VCAST_RUN_DATA_IF_9
                                                   WipeWinterModeCheck
           LOCAL                   ADDRESS         
           =====                   =======         
           rb_OutsideTemp_mg       000FAF1E 
    -------------------------------------------------------------------------
NEAR_I
  Relative segment, address: 000FAF74 - 000FAF74 (0x1 bytes), align: 0
  Segment part 120.           Intra module refs:   ApplLinInit
                                                   RainFunction
                                                   VCAST_RUN_DATA_IF_9
                                                   WipeWinterModeCheck
           LOCAL                   ADDRESS         
           =====                   =======         
           rb_WipeWorkStatus_mg    000FAF74 
    -------------------------------------------------------------------------
NEAR_Z
  Relative segment, address: 000FB4F4 - 000FB4FB (0x8 bytes), align: 1
  Segment part 122.           Intra module refs:   CalcHUDMean_1000ms
                                                   GetFiveTableValue_500ms
                                                   VCAST_RUN_DATA_IF_9
           LOCAL                   ADDRESS         
           =====                   =======         
           HUDEverageValue         000FB4F4 
    -------------------------------------------------------------------------
NEAR_Z
  Relative segment, address: 000FB4FC - 000FB523 (0x28 bytes), align: 1
  Segment part 123.           Intra module refs:   GetFiveTableValue_500ms
                                                   VCAST_RUN_DATA_IF_9
                                                   orderHUDValue
           LOCAL                   ADDRESS         
           =====                   =======         
           rb_storeHUDValueEvery500ms
                                   000FB4FC 
    -------------------------------------------------------------------------
NEAR_Z
  Relative segment, address: 000FB524 - 000FB54B (0x28 bytes), align: 1
  Segment part 124.           Intra module refs:   GetFiveTableValue_50ms
                                                   VCAST_RUN_DATA_IF_9
           LOCAL                   ADDRESS         
           =====                   =======         
           rb_storeFW_ValueEvery50ms
                                   000FB524 
    -------------------------------------------------------------------------
NEAR_Z
  Relative segment, address: 000FB54C - 000FB573 (0x28 bytes), align: 1
  Segment part 125.           Intra module refs:   GetFiveTableValue_50ms
                                                   VCAST_RUN_DATA_IF_9
           LOCAL                   ADDRESS         
           =====                   =======         
           rb_storeAMB_ValueEvery50ms
                                   000FB54C 
    -------------------------------------------------------------------------
NEAR_Z
  Relative segment, address: 000FB574 - 000FB577 (0x4 bytes), align: 1
  Segment part 126.           Intra module refs:   GetFiveTableValue_50ms
                                                   VCAST_RUN_DATA_IF_9
           LOCAL                   ADDRESS         
           =====                   =======         
           FW_Average_In_50ms      000FB574 
    -------------------------------------------------------------------------
NEAR_Z
  Relative segment, address: 000FB578 - 000FB57B (0x4 bytes), align: 1
  Segment part 127.           Intra module refs:   GetFiveTableValue_50ms
                                                   VCAST_RUN_DATA_IF_9
           LOCAL                   ADDRESS         
           =====                   =======         
           AMB_Average_In_50ms     000FB578 
    -------------------------------------------------------------------------
NEAR_Z
  Relative segment, address: 000FB57C - 000FB57F (0x4 bytes), align: 1
  Segment part 128.           Intra module refs:   GetFiveTableValue_50ms
                                                   VCAST_RUN_DATA_IF_9
           LOCAL                   ADDRESS         
           =====                   =======         
           FW_Average_In_50ms_Old
                                   000FB57C 
    -------------------------------------------------------------------------
NEAR_Z
  Relative segment, address: 000FB580 - 000FB583 (0x4 bytes), align: 1
  Segment part 129.           Intra module refs:   GetFiveTableValue_50ms
                                                   VCAST_RUN_DATA_IF_9
           LOCAL                   ADDRESS         
           =====                   =======         
           AMB_Average_In_50ms_Old
                                   000FB580 
    -------------------------------------------------------------------------
NEAR_Z
  Relative segment, address: 000FB584 - 000FB587 (0x4 bytes), align: 1
  Segment part 130.           Intra module refs:   AdjustOutHudValue
                                                   CalcHUDMean_1000ms
                                                   VCAST_RUN_DATA_IF_9
           LOCAL                   ADDRESS         
           =====                   =======         
           RW_Amb_Fw_Result_End    000FB584 
    -------------------------------------------------------------------------
NEAR_Z
  Relative segment, address: 000FB68D - 000FB68D (0x1 bytes), align: 0
  Segment part 131.           Intra module refs:   CalcHUDMean_1000ms
                                                   GetFiveTableValue_500ms
                                                   VCAST_RUN_DATA_IF_9
           LOCAL                   ADDRESS         
           =====                   =======         
           rb_hud_data_update      000FB68D 
    -------------------------------------------------------------------------
NEAR_Z
  Relative segment, address: 000FB68E - 000FB68E (0x1 bytes), align: 0
  Segment part 132.           Intra module refs:   CalcHUDMean_1000ms
                                                   VCAST_RUN_DATA_IF_9
           LOCAL                   ADDRESS         
           =====                   =======         
           RW_Update_Time_Count    000FB68E 
    -------------------------------------------------------------------------
<XCODE> 2 (was XCODE)
  Relative segment, address: 00003768 - 00004420 (0xcb9 bytes), align: 0
  Segment part 261.           Intra module refs:   VCAST_DRIVER_9
           ENTRY                   ADDRESS         REF BY
           =====                   =======         ======
           GetLeWWS                00003768 
               calls direct
               CSTACK = 00000000 ( 0000001E )
    -------------------------------------------------------------------------
NEAR_Z
  Relative segment, address: 000FB588 - 000FB589 (0x2 bytes), align: 1
  Segment part 133.           Intra module refs:   GetLeWWS
           LOCAL                   ADDRESS         
           =====                   =======         
           GetLeWWS::rw_IgnitionOffDelay_mg
                                   000FB588 
    -------------------------------------------------------------------------
NEAR_Z
  Relative segment, address: 000FB68F - 000FB68F (0x1 bytes), align: 0
  Segment part 134.           Intra module refs:   GetLeWWS
           LOCAL                   ADDRESS         
           =====                   =======         
           GetLeWWS::rb_IntervalOnOndelay_mg
                                   000FB68F 
    -------------------------------------------------------------------------
NEAR_Z
  Relative segment, address: 000FB690 - 000FB690 (0x1 bytes), align: 0
  Segment part 135.           Intra module refs:   GetLeWWS
           LOCAL                   ADDRESS         
           =====                   =======         
           GetLeWWS::rb_AfterResetCounter_l
                                   000FB690 
    -------------------------------------------------------------------------
<XCODE> 2 (was XCODE)
  Relative segment, address: 00004421 - 00004892 (0x472 bytes), align: 0
  Segment part 262.           Intra module refs:   VCAST_DRIVER_9
           ENTRY                   ADDRESS         REF BY
           =====                   =======         ======
           GetLsWWS                00004421 
               calls direct
               CSTACK = 00000000 ( 00000014 )
    -------------------------------------------------------------------------
NEAR_Z
  Relative segment, address: 000FB691 - 000FB691 (0x1 bytes), align: 0
  Segment part 136.           Intra module refs:   GetLsWWS
           LOCAL                   ADDRESS         
           =====                   =======         
           GetLsWWS::rb_parkpositioncounter_s
                                   000FB691 
    -------------------------------------------------------------------------
NEAR_CONST
  Relative segment, address: 000F3442 - 000F3449 (0x8 bytes), align: 1
  Segment part 137.           Intra module refs:   GetLsWWS
           LOCAL                   ADDRESS         
           =====                   =======         
           GetLsWWS::cab_WiperMotorRunntime_mg
                                   000F3442 
    -------------------------------------------------------------------------
<XCODE> 2 (was XCODE)
  Relative segment, address: 00004893 - 00004BF6 (0x364 bytes), align: 0
  Segment part 263.           Intra module refs:   VCAST_DRIVER_9
           ENTRY                   ADDRESS         REF BY
           =====                   =======         ======
           CopyRLSData             00004893 
               calls direct
               CSTACK = 00000000 ( 0000001C )
    -------------------------------------------------------------------------
<XCODE> 2 (was XCODE)
  Relative segment, address: 00004BF7 - 00005358 (0x762 bytes), align: 0
  Segment part 264.           Intra module refs:   CopyRLSData
                                                   VCAST_DRIVER_9
           ENTRY                   ADDRESS         REF BY
           =====                   =======         ======
           RainFunction            00004BF7 
               calls direct
               CSTACK = 00000000 ( 0000001A )
    -------------------------------------------------------------------------
NEAR_Z
  Relative segment, address: 000FB692 - 000FB692 (0x1 bytes), align: 0
  Segment part 138.           Intra module refs:   RainFunction
           LOCAL                   ADDRESS         
           =====                   =======         
           RainFunction::rb_OutOffParkCounter_mg
                                   000FB692 
    -------------------------------------------------------------------------
NEAR_Z
  Relative segment, address: 000FB693 - 000FB693 (0x1 bytes), align: 0
  Segment part 139.           Intra module refs:   RainFunction
           LOCAL                   ADDRESS         
           =====                   =======         
           RainFunction::rb_TunnelWipeTimeOut_mg
                                   000FB693 
    -------------------------------------------------------------------------
NEAR_Z
  Relative segment, address: 000FB694 - 000FB694 (0x1 bytes), align: 0
  Segment part 140.           Intra module refs:   RainFunction
           LOCAL                   ADDRESS         
           =====                   =======         
           RainFunction::rb_tunnelWipeActive_g
                                   000FB694 
    -------------------------------------------------------------------------
<XCODE> 2 (was XCODE)
  Relative segment, address: 00005359 - 00005C1E (0x8c6 bytes), align: 0
  Segment part 265.           Intra module refs:   CopyRLSData
                                                   VCAST_DRIVER_9
           ENTRY                   ADDRESS         REF BY
           =====                   =======         ======
           LightFunction           00005359 
               calls direct
               CSTACK = 00000000 ( 00000026 )
    -------------------------------------------------------------------------
<XCODE> 2 (was XCODE)
  Relative segment, address: 00005C1F - 00006064 (0x446 bytes), align: 0
  Segment part 266.           Intra module refs:   CopyRLSData
                                                   VCAST_DRIVER_9
           ENTRY                   ADDRESS         REF BY
           =====                   =======         ======
           Humidity_Function       00005C1F 
               calls direct
               CSTACK = 00000000 ( 00000014 )
    -------------------------------------------------------------------------
NEAR_Z
  Relative segment, address: 000FB58A - 000FB58B (0x2 bytes), align: 1
  Segment part 141.           Intra module refs:   Humidity_Function
           LOCAL                   ADDRESS         
           =====                   =======         
           Humidity_Function::rw_Temperature_Scheibe_g
                                   000FB58A 
    -------------------------------------------------------------------------
<XCODE> 2 (was XCODE)
  Relative segment, address: 00006065 - 0000621A (0x1b6 bytes), align: 0
  Segment part 267.           Intra module refs:   CopyRLSData
                                                   VCAST_DRIVER_9
           ENTRY                   ADDRESS         REF BY
           =====                   =======         ======
           StandByMode             00006065 
               calls direct
               CSTACK = 00000000 ( 00000014 )
    -------------------------------------------------------------------------
<XCODE> 2 (was XCODE)
  Relative segment, address: 0000621B - 00006357 (0x13d bytes), align: 0
  Segment part 268.           Intra module refs:   CopyRLSData
                                                   VCAST_DRIVER_9
           ENTRY                   ADDRESS         REF BY
           =====                   =======         ======
           VoltageDetect           0000621B 
               calls direct
               CSTACK = 00000000 ( 00000012 )
    -------------------------------------------------------------------------
NEAR_Z
  Relative segment, address: 000FB695 - 000FB695 (0x1 bytes), align: 0
  Segment part 142.           Intra module refs:   VoltageDetect
           LOCAL                   ADDRESS         
           =====                   =======         
           VoltageDetect::rb_underVoltageTimer_s
                                   000FB695 
    -------------------------------------------------------------------------
<XCODE> 2 (was XCODE)
  Relative segment, address: 00006358 - 000065C7 (0x270 bytes), align: 0
  Segment part 269.           Intra module refs:   CopyRLSData
                                                   VCAST_DRIVER_9
           ENTRY                   ADDRESS         REF BY
           =====                   =======         ======
           TemperatureDetect       00006358 
               calls direct
               CSTACK = 00000000 ( 00000016 )
    -------------------------------------------------------------------------
NEAR_Z
  Relative segment, address: 000FB58C - 000FB58D (0x2 bytes), align: 1
  Segment part 143.           Intra module refs:   TemperatureDetect
           LOCAL                   ADDRESS         
           =====                   =======         
           TemperatureDetect::rb_overTemperatureTimer_s
                                   000FB58C 
    -------------------------------------------------------------------------
<XCODE> 2 (was XCODE)
  Relative segment, address: 000065C8 - 00006648 (0x81 bytes), align: 0
  Segment part 270.           Intra module refs:   CopyRLSData
                                                   VCAST_DRIVER_9
           ENTRY                   ADDRESS         REF BY
           =====                   =======         ======
           OutPutHudSendCount      000065C8 
               calls direct
               CSTACK = 00000000 ( 00000012 )
    -------------------------------------------------------------------------
NEAR_Z
  Relative segment, address: 000FB696 - 000FB696 (0x1 bytes), align: 0
  Segment part 144.           Intra module refs:   OutPutHudSendCount
           LOCAL                   ADDRESS         
           =====                   =======         
           OutPutHudSendCount::rb_HUD_Cnt_s
                                   000FB696 
    -------------------------------------------------------------------------
<XCODE> 2 (was XCODE)
  Relative segment, address: 00006649 - 0000680D (0x1c5 bytes), align: 0
  Segment part 271.           Intra module refs:   OutPutBrightnessValue
                                                   VCAST_DRIVER_9
           ENTRY                   ADDRESS         REF BY
           =====                   =======         ======
           OutPutHudValue          00006649 
               calls direct
               CSTACK = 00000000 ( 0000001E )
    -------------------------------------------------------------------------
<XCODE> 2 (was XCODE)
  Relative segment, address: 0000680E - 000068C0 (0xb3 bytes), align: 0
  Segment part 272.           Intra module refs:   OutPutBrightnessValue
                                                   VCAST_DRIVER_9
           ENTRY                   ADDRESS         REF BY
           =====                   =======         ======
           OutPutTwliBriValue      0000680E 
               calls direct
               CSTACK = 00000000 ( 00000012 )
    -------------------------------------------------------------------------
<XCODE> 2 (was XCODE)
  Relative segment, address: 000068C1 - 00006C43 (0x383 bytes), align: 0
  Segment part 273.           Intra module refs:   OutPutBrightnessValue
                                                   VCAST_DRIVER_9
           ENTRY                   ADDRESS         REF BY
           =====                   =======         ======
           OutPutSolarValue        000068C1 
               calls direct
               CSTACK = 00000000 ( 00000022 )
    -------------------------------------------------------------------------
<XCODE> 2 (was XCODE)
  Relative segment, address: 00006C44 - 00006E3B (0x1f8 bytes), align: 0
  Segment part 274.           Intra module refs:   CopyRLSData
                                                   VCAST_DRIVER_9
           ENTRY                   ADDRESS         REF BY
           =====                   =======         ======
           OutPutBrightnessValue   00006C44 
               calls direct
               CSTACK = 00000000 ( 00000014 )
    -------------------------------------------------------------------------
NEAR_I
  Relative segment, address: 000FAF75 - 000FAF75 (0x1 bytes), align: 0
  Segment part 145.           Intra module refs:   OutPutBrightnessValue
           LOCAL                   ADDRESS         
           =====                   =======         
           OutPutBrightnessValue::rb_InitLightValCnt_l
                                   000FAF75 
    -------------------------------------------------------------------------
<XCODE> 2 (was XCODE)
  Relative segment, address: 00006E3C - 000073BB (0x580 bytes), align: 0
  Segment part 275.           Intra module refs:   CopyRLSData
                                                   VCAST_DRIVER_9
           LOCAL                   ADDRESS         
           =====                   =======         
           CheckErrors             00006E3C 
               calls direct
               CSTACK = 00000000 ( 0000001E )
    -------------------------------------------------------------------------
<XCODE> 2 (was XCODE)
  Relative segment, address: 000073BC - 000074C0 (0x105 bytes), align: 0
  Segment part 276.           Intra module refs:   StandByMode
                                                   VCAST_DRIVER_9
           ENTRY                   ADDRESS         REF BY
           =====                   =======         ======
           ApplLinInit             000073BC 
               calls direct
               CSTACK = 00000000 ( 00000016 )
    -------------------------------------------------------------------------
NEAR_CONST
  Relative segment, address: 000F344A - 000F3451 (0x8 bytes), align: 1
  Segment part 147.           Intra module refs:   ApplLinInit
           LOCAL                   ADDRESS         
           =====                   =======         
           ApplLinInit::LinMsgDefault_RlsmCem_SerNrLin1Fr01_CEM_LIN1
                                   000F344A 
    -------------------------------------------------------------------------
NEAR_CONST
  Relative segment, address: 000F3452 - 000F3459 (0x8 bytes), align: 1
  Segment part 148.           Intra module refs:   ApplLinInit
           LOCAL                   ADDRESS         
           =====                   =======         
           ApplLinInit::LinMsgDefault_RlsmCem_Lin1PartNrFr02_CEM_LIN1
                                   000F3452 
    -------------------------------------------------------------------------
NEAR_CONST
  Relative segment, address: 000F345A - 000F3461 (0x8 bytes), align: 1
  Segment part 149.           Intra module refs:   ApplLinInit
           LOCAL                   ADDRESS         
           =====                   =======         
           ApplLinInit::LinMsgDefault_RlsmCem_Lin1PartNrFr01_CEM_LIN1
                                   000F345A 
    -------------------------------------------------------------------------
NEAR_CONST
  Relative segment, address: 000F3462 - 000F3469 (0x8 bytes), align: 1
  Segment part 150.           Intra module refs:   ApplLinInit
           LOCAL                   ADDRESS         
           =====                   =======         
           ApplLinInit::LinMsgDefault_RlsmCem_Lin1Fr03_CEM_LIN1
                                   000F3462 
    -------------------------------------------------------------------------
NEAR_CONST
  Relative segment, address: 000F346A - 000F3471 (0x8 bytes), align: 1
  Segment part 151.           Intra module refs:   ApplLinInit
           LOCAL                   ADDRESS         
           =====                   =======         
           ApplLinInit::LinMsgDefault_RlsmCem_Lin1Fr02_CEM_LIN1
                                   000F346A 
    -------------------------------------------------------------------------
NEAR_CONST
  Relative segment, address: 000F3472 - 000F3479 (0x8 bytes), align: 1
  Segment part 152.           Intra module refs:   ApplLinInit
           LOCAL                   ADDRESS         
           =====                   =======         
           ApplLinInit::LinMsgDefault_RlsmCem_Lin1Fr01_CEM_LIN1
                                   000F3472 
    -------------------------------------------------------------------------
CODE
  Relative segment, address: 00000B2F - 00000BAA (0x7c bytes), align: 0
  Segment part 397.           Intra module refs:   __T_ApplLinSlavePreCopy
           ENTRY                   ADDRESS         REF BY
           =====                   =======         ======
           ApplLinSlavePreCopy     00000B2F 
               calls direct
               CSTACK = 00000000 ( 00000012 )
    -------------------------------------------------------------------------
<XCODE> 2 (was XCODE)
  Relative segment, address: 000074C1 - 000075ED (0x12d bytes), align: 0
  Segment part 277.           Intra module refs:   GetFiveTableValue_50ms
                                                   VCAST_DRIVER_9
           ENTRY                   ADDRESS         REF BY
           =====                   =======         ======
           GetFiveTableValue_500ms
                                   000074C1 
               calls direct
               CSTACK = 00000000 ( 00000014 )
    -------------------------------------------------------------------------
NEAR_Z
  Relative segment, address: 000FB697 - 000FB697 (0x1 bytes), align: 0
  Segment part 153.           Intra module refs:   GetFiveTableValue_500ms
           LOCAL                   ADDRESS         
           =====                   =======         
           GetFiveTableValue_500ms::rb_k_cycleIn50ms
                                   000FB697 
    -------------------------------------------------------------------------
NEAR_Z
  Relative segment, address: 000FB698 - 000FB698 (0x1 bytes), align: 0
  Segment part 154.           Intra module refs:   GetFiveTableValue_500ms
           LOCAL                   ADDRESS         
           =====                   =======         
           GetFiveTableValue_500ms::rb_k_cycleIn500ms
                                   000FB698 
    -------------------------------------------------------------------------
<XCODE> 2 (was XCODE)
  Relative segment, address: 000075EE - 00007812 (0x225 bytes), align: 0
  Segment part 278.           Intra module refs:   CalcHUDMean_1000ms
                                                   VCAST_DRIVER_9
           ENTRY                   ADDRESS         REF BY
           =====                   =======         ======
           AdjustOutHudValue       000075EE 
               calls direct
               CSTACK = 00000000 ( 0000001E )
    -------------------------------------------------------------------------
<XCODE> 2 (was XCODE)
  Relative segment, address: 00007813 - 000079D7 (0x1c5 bytes), align: 0
  Segment part 279.           Intra module refs:   CalcHUDMean_1000ms
                                                   VCAST_DRIVER_9
           ENTRY                   ADDRESS         REF BY
           =====                   =======         ======
           GetUpdateTimeForLightStatus
                                   00007813 
               calls direct
               CSTACK = 00000000 ( 00000014 )
    -------------------------------------------------------------------------
<XCODE> 2 (was XCODE)
  Relative segment, address: 000079D8 - 00007BD6 (0x1ff bytes), align: 0
  Segment part 280.           Intra module refs:   OutPutHudValue
                                                   VCAST_DRIVER_9
           ENTRY                   ADDRESS         REF BY
           =====                   =======         ======
           CalcHUDMean_1000ms      000079D8 
               calls direct
               CSTACK = 00000000 ( 00000018 )
    -------------------------------------------------------------------------
<XCODE> 2 (was XCODE)
  Relative segment, address: 00007BD7 - 00007D6B (0x195 bytes), align: 0
  Segment part 281.           Intra module refs:   GetFiveTableValue_500ms
                                                   VCAST_DRIVER_9
           ENTRY                   ADDRESS         REF BY
           =====                   =======         ======
           orderHUDValue           00007BD7 
               calls direct
               CSTACK = 00000000 ( 0000001C )
    -------------------------------------------------------------------------
<XCODE> 2 (was XCODE)
  Relative segment, address: 00007D6C - 00007FA4 (0x239 bytes), align: 0
  Segment part 282.           Intra module refs:   OutPutHudValue
                                                   VCAST_DRIVER_9
           ENTRY                   ADDRESS         REF BY
           =====                   =======         ======
           GetFiveTableValue_50ms
                                   00007D6C 
               calls direct
               CSTACK = 00000004 ( 00000016 )
    -------------------------------------------------------------------------
NEAR_Z
  Relative segment, address: 000FB699 - 000FB699 (0x1 bytes), align: 0
  Segment part 155.           Intra module refs:   GetFiveTableValue_50ms
           LOCAL                   ADDRESS         
           =====                   =======         
           GetFiveTableValue_50ms::rb_k_cycleIn50ms
                                   000FB699 
    -------------------------------------------------------------------------
<XCODE> 2 (was XCODE)
  Relative segment, address: 00007FA5 - 000080DB (0x137 bytes), align: 0
  Segment part 283.           Intra module refs:   GetHudCrcj1850
                                                   GetOutdBriStsCrcj1850
                                                   VCAST_DRIVER_9
           ENTRY                   ADDRESS         REF BY
           =====                   =======         ======
           CRC8SAEJ1850            00007FA5 
               calls direct
               CSTACK = 00000000 ( 0000001A )
    -------------------------------------------------------------------------
<XCODE> 2 (was XCODE)
  Relative segment, address: 000080DC - 00008115 (0x3a bytes), align: 0
  Segment part 284.           Intra module refs:   LightFunction
                                                   VCAST_DRIVER_9
           ENTRY                   ADDRESS         REF BY
           =====                   =======         ======
           GetOutdBriStsCrcj1850   000080DC 
               calls direct
               CSTACK = 00000000 ( 0000000C )
    -------------------------------------------------------------------------
<XCODE> 2 (was XCODE)
  Relative segment, address: 00008116 - 00008168 (0x53 bytes), align: 0
  Segment part 285.           Intra module refs:   OutPutHudValue
                                                   VCAST_DRIVER_9
           ENTRY                   ADDRESS         REF BY
           =====                   =======         ======
           GetHudCrcj1850          00008116 
               calls direct
               CSTACK = 00000000 ( 0000000E )
    -------------------------------------------------------------------------
<XCODE> 2 (was XCODE)
  Relative segment, address: 00008169 - 0000857A (0x412 bytes), align: 0
  Segment part 286.           Intra module refs:   GetLeWWS
                                                   VCAST_DRIVER_9
           ENTRY                   ADDRESS         REF BY
           =====                   =======         ======
           GetLightTransmission    00008169 
               calls direct
               CSTACK = 00000000 ( 0000001A )
    -------------------------------------------------------------------------
<XCODE> 2 (was XCODE)
  Relative segment, address: 0000857B - 0000872E (0x1b4 bytes), align: 0
  Segment part 287.           Intra module refs:   GetLeWWS
                                                   VCAST_DRIVER_9
           ENTRY                   ADDRESS         REF BY
           =====                   =======         ======
           Get_BCMVehType          0000857B 
               calls direct
               CSTACK = 00000000 ( 00000018 )
    -------------------------------------------------------------------------
NEAR_Z
  Relative segment, address: 000FB69A - 000FB69A (0x1 bytes), align: 0
  Segment part 156.           Intra module refs:   Get_BCMVehType
           LOCAL                   ADDRESS         
           =====                   =======         
           Get_BCMVehType::rb_VehTypeValueDebounce
                                   000FB69A 
    -------------------------------------------------------------------------
<XCODE> 2 (was XCODE)
  Relative segment, address: 0000872F - 000088D7 (0x1a9 bytes), align: 0
  Segment part 288.           Intra module refs:   GetLeWWS
                                                   VCAST_DRIVER_9
           ENTRY                   ADDRESS         REF BY
           =====                   =======         ======
           Set_BCMLightOffset      0000872F 
               calls direct
               CSTACK = 00000000 ( 00000018 )
    -------------------------------------------------------------------------
NEAR_Z
  Relative segment, address: 000FB69B - 000FB69B (0x1 bytes), align: 0
  Segment part 157.           Intra module refs:   Set_BCMLightOffset
           LOCAL                   ADDRESS         
           =====                   =======         
           Set_BCMLightOffset::rb_lightValueDebounce
                                   000FB69B 
    -------------------------------------------------------------------------
<XCODE> 2 (was XCODE)
  Relative segment, address: 000088D8 - 00008916 (0x3f bytes), align: 0
  Segment part 289.           Intra module refs:   CopyRLSData
                                                   VCAST_DRIVER_9
           ENTRY                   ADDRESS         REF BY
           =====                   =======         ======
           SendRLSSerNo            000088D8 
               CSTACK = 00000000 ( 0000000A )
    -------------------------------------------------------------------------
<XCODE> 2 (was XCODE)
  Relative segment, address: 00008917 - 00008967 (0x51 bytes), align: 0
  Segment part 290.           Intra module refs:   CopyRLSData
                                                   VCAST_DRIVER_9
           ENTRY                   ADDRESS         REF BY
           =====                   =======         ======
           SendRLSMPartNo          00008917 
               CSTACK = 00000000 ( 0000000A )
    -------------------------------------------------------------------------
<XCODE> 2 (was XCODE)
  Relative segment, address: 00008968 - 000089BE (0x57 bytes), align: 0
  Segment part 291.           Intra module refs:   CopyRLSData
                                                   VCAST_DRIVER_9
           ENTRY                   ADDRESS         REF BY
           =====                   =======         ======
           SendRLSMPartNo10        00008968 
               CSTACK = 00000000 ( 0000000A )
    -------------------------------------------------------------------------
<XCODE> 2 (was XCODE)
  Relative segment, address: 000089BF - 00008A6E (0xb0 bytes), align: 0
  Segment part 292.           Intra module refs:   GetLeWWS
                                                   VCAST_DRIVER_9
           ENTRY                   ADDRESS         REF BY
           =====                   =======         ======
           WipeWinterModeCheck     000089BF 
               calls direct
               CSTACK = 00000000 ( 00000014 )
    -------------------------------------------------------------------------
<XCODE> 2 (was XCODE)
  Relative segment, address: 00008A6F - 00008B4F (0xe1 bytes), align: 0
  Segment part 293.           Intra module refs:   CheckErrors
                                                   VCAST_DRIVER_9
           ENTRY                   ADDRESS         REF BY
           =====                   =======         ======
           IsByteOddParity         00008A6F 
               calls direct
               CSTACK = 00000000 ( 00000016 )
    -------------------------------------------------------------------------
NEAR_Z
  Relative segment, address: 000FB69C - 000FB69C (0x1 bytes), align: 0
  Segment part 158.           Intra module refs:   VCAST_DRIVER_9
                                                   VCAST_RUN_DATA_IF_9
           ENTRY                   ADDRESS         REF BY
           =====                   =======         ======
           P_9_16_1                000FB69C 
    -------------------------------------------------------------------------
NEAR_Z
  Relative segment, address: 000FB69D - 000FB69D (0x1 bytes), align: 0
  Segment part 159.           Intra module refs:   VCAST_DRIVER_9
                                                   VCAST_RUN_DATA_IF_9
           ENTRY                   ADDRESS         REF BY
           =====                   =======         ======
           P_9_17_1                000FB69D 
    -------------------------------------------------------------------------
NEAR_Z
  Relative segment, address: 000FB58E - 000FB591 (0x4 bytes), align: 1
  Segment part 160.           Intra module refs:   VCAST_DRIVER_9
                                                   VCAST_RUN_DATA_IF_9
           ENTRY                   ADDRESS         REF BY
           =====                   =======         ======
           P_9_18_1                000FB58E 
    -------------------------------------------------------------------------
NEAR_Z
  Relative segment, address: 000FB592 - 000FB595 (0x4 bytes), align: 1
  Segment part 161.           Intra module refs:   VCAST_DRIVER_9
                                                   VCAST_RUN_DATA_IF_9
           ENTRY                   ADDRESS         REF BY
           =====                   =======         ======
           P_9_19_1                000FB592 
    -------------------------------------------------------------------------
NEAR_Z
  Relative segment, address: 000FB596 - 000FB599 (0x4 bytes), align: 1
  Segment part 162.           Intra module refs:   VCAST_DRIVER_9
                                                   VCAST_RUN_DATA_IF_9
           ENTRY                   ADDRESS         REF BY
           =====                   =======         ======
           R_9_19                  000FB596 
    -------------------------------------------------------------------------
NEAR_Z
  Relative segment, address: 000FB69E - 000FB69E (0x1 bytes), align: 0
  Segment part 163.           Intra module refs:   VCAST_DRIVER_9
                                                   VCAST_RUN_DATA_IF_9
           ENTRY                   ADDRESS         REF BY
           =====                   =======         ======
           R_9_20                  000FB69E 
    -------------------------------------------------------------------------
NEAR_Z
  Relative segment, address: 000FB59A - 000FB59D (0x4 bytes), align: 1
  Segment part 164.           Intra module refs:   VCAST_DRIVER_9
                                                   VCAST_RUN_DATA_IF_9
           ENTRY                   ADDRESS         REF BY
           =====                   =======         ======
           R_9_21                  000FB59A 
    -------------------------------------------------------------------------
NEAR_Z
  Relative segment, address: 000FB59E - 000FB59F (0x2 bytes), align: 1
  Segment part 165.           Intra module refs:   VCAST_DRIVER_9
                                                   VCAST_RUN_DATA_IF_9
           ENTRY                   ADDRESS         REF BY
           =====                   =======         ======
           P_9_22_1                000FB59E 
    -------------------------------------------------------------------------
NEAR_Z
  Relative segment, address: 000FB5A0 - 000FB5A3 (0x4 bytes), align: 1
  Segment part 166.           Intra module refs:   VCAST_DRIVER_9
                                                   VCAST_RUN_DATA_IF_9
           ENTRY                   ADDRESS         REF BY
           =====                   =======         ======
           P_9_23_1                000FB5A0 
    -------------------------------------------------------------------------
NEAR_Z
  Relative segment, address: 000FB5A4 - 000FB5A7 (0x4 bytes), align: 1
  Segment part 167.           Intra module refs:   VCAST_DRIVER_9
                                                   VCAST_RUN_DATA_IF_9
           ENTRY                   ADDRESS         REF BY
           =====                   =======         ======
           P_9_23_2                000FB5A4 
    -------------------------------------------------------------------------
NEAR_Z
  Relative segment, address: 000FB5A8 - 000FB5A9 (0x2 bytes), align: 1
  Segment part 168.           Intra module refs:   VCAST_DRIVER_9
                                                   VCAST_RUN_DATA_IF_9
           ENTRY                   ADDRESS         REF BY
           =====                   =======         ======
           P_9_24_1                000FB5A8 
    -------------------------------------------------------------------------
NEAR_Z
  Relative segment, address: 000FB69F - 000FB69F (0x1 bytes), align: 0
  Segment part 169.           Intra module refs:   VCAST_DRIVER_9
                                                   VCAST_RUN_DATA_IF_9
           ENTRY                   ADDRESS         REF BY
           =====                   =======         ======
           P_9_24_2                000FB69F 
    -------------------------------------------------------------------------
NEAR_Z
  Relative segment, address: 000FB6A0 - 000FB6A0 (0x1 bytes), align: 0
  Segment part 170.           Intra module refs:   VCAST_DRIVER_9
                                                   VCAST_RUN_DATA_IF_9
           ENTRY                   ADDRESS         REF BY
           =====                   =======         ======
           R_9_24                  000FB6A0 
    -------------------------------------------------------------------------
NEAR_Z
  Relative segment, address: 000FB6A1 - 000FB6A1 (0x1 bytes), align: 0
  Segment part 171.           Intra module refs:   VCAST_DRIVER_9
                                                   VCAST_RUN_DATA_IF_9
           ENTRY                   ADDRESS         REF BY
           =====                   =======         ======
           P_9_25_1                000FB6A1 
    -------------------------------------------------------------------------
NEAR_Z
  Relative segment, address: 000FB6A2 - 000FB6A2 (0x1 bytes), align: 0
  Segment part 172.           Intra module refs:   VCAST_DRIVER_9
                                                   VCAST_RUN_DATA_IF_9
           ENTRY                   ADDRESS         REF BY
           =====                   =======         ======
           R_9_25                  000FB6A2 
    -------------------------------------------------------------------------
NEAR_Z
  Relative segment, address: 000FB5AA - 000FB5AD (0x4 bytes), align: 1
  Segment part 173.           Intra module refs:   VCAST_DRIVER_9
                                                   VCAST_RUN_DATA_IF_9
           ENTRY                   ADDRESS         REF BY
           =====                   =======         ======
           P_9_26_1                000FB5AA 
    -------------------------------------------------------------------------
NEAR_Z
  Relative segment, address: 000FB6A3 - 000FB6A3 (0x1 bytes), align: 0
  Segment part 174.           Intra module refs:   VCAST_DRIVER_9
                                                   VCAST_RUN_DATA_IF_9
           ENTRY                   ADDRESS         REF BY
           =====                   =======         ======
           R_9_26                  000FB6A3 
    -------------------------------------------------------------------------
NEAR_Z
  Relative segment, address: 000FB6A4 - 000FB6A4 (0x1 bytes), align: 0
  Segment part 175.           Intra module refs:   VCAST_DRIVER_9
                                                   VCAST_RUN_DATA_IF_9
           ENTRY                   ADDRESS         REF BY
           =====                   =======         ======
           P_9_27_1                000FB6A4 
    -------------------------------------------------------------------------
NEAR_Z
  Relative segment, address: 000FB6A5 - 000FB6A5 (0x1 bytes), align: 0
  Segment part 176.           Intra module refs:   VCAST_DRIVER_9
                                                   VCAST_RUN_DATA_IF_9
           ENTRY                   ADDRESS         REF BY
           =====                   =======         ======
           P_9_27_2                000FB6A5 
    -------------------------------------------------------------------------
NEAR_Z
  Relative segment, address: 000FB6A6 - 000FB6A6 (0x1 bytes), align: 0
  Segment part 177.           Intra module refs:   VCAST_DRIVER_9
                                                   VCAST_RUN_DATA_IF_9
           ENTRY                   ADDRESS         REF BY
           =====                   =======         ======
           P_9_28_1                000FB6A6 
    -------------------------------------------------------------------------
NEAR_Z
  Relative segment, address: 000FB6A7 - 000FB6A7 (0x1 bytes), align: 0
  Segment part 178.           Intra module refs:   VCAST_DRIVER_9
                                                   VCAST_RUN_DATA_IF_9
           ENTRY                   ADDRESS         REF BY
           =====                   =======         ======
           P_9_29_1                000FB6A7 
    -------------------------------------------------------------------------
NEAR_Z
  Relative segment, address: 000FB6A8 - 000FB6A8 (0x1 bytes), align: 0
  Segment part 179.           Intra module refs:   VCAST_DRIVER_9
                                                   VCAST_RUN_DATA_IF_9
           ENTRY                   ADDRESS         REF BY
           =====                   =======         ======
           P_9_34_1                000FB6A8 
    -------------------------------------------------------------------------
NEAR_Z
  Relative segment, address: 000FB6A9 - 000FB6A9 (0x1 bytes), align: 0
  Segment part 180.           Intra module refs:   VCAST_DRIVER_9
                                                   VCAST_RUN_DATA_IF_9
           ENTRY                   ADDRESS         REF BY
           =====                   =======         ======
           R_9_34                  000FB6A9 
    -------------------------------------------------------------------------
NEAR_Z
  Relative segment, address: 000FB5AE - 000FB619 (0x6c bytes), align: 1
  Segment part 181.           Intra module refs:   ApplLinSlavePreCopy
                                                   CheckErrors
                                                   CopyRLSData
                                                   GetLeWWS
                                                   GetLightTransmission
                                                   Get_BCMVehType
                                                   LightFunction
                                                   OutPutBrightnessValue
                                                   OutPutHudValue
                                                   OutPutSolarValue
                                                   SendRLSMPartNo
                                                   SendRLSMPartNo10
                                                   SendRLSSerNo
                                                   Set_BCMLightOffset
                                                   VCAST_RUN_DATA_IF_9
           ENTRY                   ADDRESS         REF BY
           =====                   =======         ======
           EEPROM_Struct_PD        000FB5AE 
    -------------------------------------------------------------------------
NEAR_Z
  Relative segment, address: 000FB6AA - 000FB6AA (0x1 bytes), align: 0
  Segment part 182.           Intra module refs:   Humidity_Function
                                                   VCAST_RUN_DATA_IF_9
           ENTRY                   ADDRESS         REF BY
           =====                   =======         ======
           rb_Humidity_raw_g       000FB6AA 
    -------------------------------------------------------------------------
NEAR_Z
  Relative segment, address: 000FB6AB - 000FB6AB (0x1 bytes), align: 0
  Segment part 183.           Intra module refs:   Humidity_Function
                                                   VCAST_RUN_DATA_IF_9
           ENTRY                   ADDRESS         REF BY
           =====                   =======         ======
           rb_Humidity_g           000FB6AB 
    -------------------------------------------------------------------------
NEAR_Z
  Relative segment, address: 000FB61A - 000FB61B (0x2 bytes), align: 1
  Segment part 184.           Intra module refs:   Humidity_Function
                                                   VCAST_RUN_DATA_IF_9
           ENTRY                   ADDRESS         REF BY
           =====                   =======         ======
           rw_Temperature_raw_g    000FB61A 
    -------------------------------------------------------------------------
NEAR_Z
  Relative segment, address: 000FB61C - 000FB61D (0x2 bytes), align: 1
  Segment part 185.           Intra module refs:   Humidity_Function
                                                   VCAST_RUN_DATA_IF_9
           ENTRY                   ADDRESS         REF BY
           =====                   =======         ======
           rw_DewPoint_g           000FB61C 
    -------------------------------------------------------------------------
NEAR_Z
  Relative segment, address: 000FB6AC - 000FB6AC (0x1 bytes), align: 0
  Segment part 186.           Intra module refs:   Humidity_Function
                                                   VCAST_RUN_DATA_IF_9
           ENTRY                   ADDRESS         REF BY
           =====                   =======         ======
           rbi_HumTempComError_g   000FB6AC 
    -------------------------------------------------------------------------
NEAR_Z
  Relative segment, address: 000FB6AD - 000FB76E (0xc2 bytes), align: 0
  Segment part 187.           Intra module refs:   GetLeWWS
                                                   OutPutSolarValue
                                                   RainFunction
                                                   VCAST_RUN_DATA_IF_9
           ENTRY                   ADDRESS         REF BY
           =====                   =======         ======
           EEPROM_Struct_AD        000FB6AD 
    -------------------------------------------------------------------------
NEAR_Z
  Relative segment, address: 000FB76F - 000FB76F (0x1 bytes), align: 0
  Segment part 188.           Intra module refs:   CopyRLSData
                                                   VCAST_RUN_DATA_IF_9
           ENTRY                   ADDRESS         REF BY
           =====                   =======         ======
           rb_WDG_BusTaskCounter_g
                                   000FB76F 
    -------------------------------------------------------------------------
NEAR_Z
  Relative segment, address: 000FB770 - 000FB770 (0x1 bytes), align: 0
  Segment part 189.           Intra module refs:   GetLeWWS
                                                   VCAST_RUN_DATA_IF_9
           ENTRY                   ADDRESS         REF BY
           =====                   =======         ======
           uLinIndicationFlags     000FB770 
    -------------------------------------------------------------------------
NEAR_Z
  Relative segment, address: 000FB771 - 000FB772 (0x2 bytes), align: 0
  Segment part 190.           Intra module refs:   CopyRLSData
                                                   VCAST_RUN_DATA_IF_9
           ENTRY                   ADDRESS         REF BY
           =====                   =======         ======
           uLinConfirmationFlags   000FB771 
    -------------------------------------------------------------------------
NEAR_Z
  Relative segment, address: 000FB773 - 000FB773 (0x1 bytes), align: 0
  Segment part 191.           Intra module refs:   GetLeWWS
                                                   VCAST_RUN_DATA_IF_9
           ENTRY                   ADDRESS         REF BY
           =====                   =======         ======
           rb_WakeupCounter_mg     000FB773 
    -------------------------------------------------------------------------
NEAR_Z
  Relative segment, address: 000FB774 - 000FB777 (0x4 bytes), align: 0
  Segment part 192.           Intra module refs:   ApplLinInit
                                                   SendRLSSerNo
                                                   VCAST_RUN_DATA_IF_9
           ENTRY                   ADDRESS         REF BY
           =====                   =======         ======
           RlsmCem_SerNrLin1Fr01_CEM_LIN1
                                   000FB774 
    -------------------------------------------------------------------------
NEAR_Z
  Relative segment, address: 000FB778 - 000FB77F (0x8 bytes), align: 0
  Segment part 193.           Intra module refs:   ApplLinInit
                                                   SendRLSMPartNo10
                                                   VCAST_RUN_DATA_IF_9
           ENTRY                   ADDRESS         REF BY
           =====                   =======         ======
           RlsmCem_Lin1PartNrFr02_CEM_LIN1
                                   000FB778 
    -------------------------------------------------------------------------
NEAR_Z
  Relative segment, address: 000FB780 - 000FB786 (0x7 bytes), align: 0
  Segment part 194.           Intra module refs:   ApplLinInit
                                                   SendRLSMPartNo
                                                   VCAST_RUN_DATA_IF_9
           ENTRY                   ADDRESS         REF BY
           =====                   =======         ======
           RlsmCem_Lin1PartNrFr01_CEM_LIN1
                                   000FB780 
    -------------------------------------------------------------------------
NEAR_Z
  Relative segment, address: 000FB787 - 000FB78E (0x8 bytes), align: 0
  Segment part 195.           Intra module refs:   ApplLinInit
                                                   CheckErrors
                                                   LightFunction
                                                   OutPutBrightnessValue
                                                   OutPutSolarValue
                                                   StandByMode
                                                   TemperatureDetect
                                                   VCAST_RUN_DATA_IF_9
                                                   VoltageDetect
           ENTRY                   ADDRESS         REF BY
           =====                   =======         ======
           RlsmCem_Lin1Fr03_CEM_LIN1
                                   000FB787 
    -------------------------------------------------------------------------
NEAR_Z
  Relative segment, address: 000FB78F - 000FB796 (0x8 bytes), align: 0
  Segment part 196.           Intra module refs:   ApplLinInit
                                                   Humidity_Function
                                                   OutPutBrightnessValue
                                                   OutPutHudSendCount
                                                   OutPutHudValue
                                                   VCAST_RUN_DATA_IF_9
           ENTRY                   ADDRESS         REF BY
           =====                   =======         ======
           RlsmCem_Lin1Fr02_CEM_LIN1
                                   000FB78F 
    -------------------------------------------------------------------------
NEAR_Z
  Relative segment, address: 000FB797 - 000FB79E (0x8 bytes), align: 0
  Segment part 197.           Intra module refs:   ApplLinInit
                                                   ApplLinSlavePreCopy
                                                   CheckErrors
                                                   GetLeWWS
                                                   GetLightTransmission
                                                   LightFunction
                                                   OutPutBrightnessValue
                                                   OutPutTwliBriValue
                                                   RainFunction
                                                   VCAST_RUN_DATA_IF_9
           ENTRY                   ADDRESS         REF BY
           =====                   =======         ======
           RlsmCem_Lin1Fr01_CEM_LIN1
                                   000FB797 
    -------------------------------------------------------------------------
NEAR_Z
  Relative segment, address: 000FB79F - 000FB79F (0x1 bytes), align: 0
  Segment part 198.           Intra module refs:   GetLeWWS
                                                   RainFunction
                                                   VCAST_RUN_DATA_IF_9
           ENTRY                   ADDRESS         REF BY
           =====                   =======         ======
           CemCem_Lin1Fr06_CEM_LIN1
                                   000FB79F 
    -------------------------------------------------------------------------
NEAR_Z
  Relative segment, address: 000FB7A0 - 000FB7A6 (0x7 bytes), align: 0
  Segment part 199.           Intra module refs:   GetLeWWS
                                                   VCAST_RUN_DATA_IF_9
           ENTRY                   ADDRESS         REF BY
           =====                   =======         ======
           CemCem_Lin1Fr05_CEM_LIN1
                                   000FB7A0 
    -------------------------------------------------------------------------
NEAR_Z
  Relative segment, address: 000FB7A7 - 000FB7AD (0x7 bytes), align: 0
  Segment part 200.           Intra module refs:   GetLeWWS
                                                   VCAST_RUN_DATA_IF_9
           ENTRY                   ADDRESS         REF BY
           =====                   =======         ======
           CemCem_Lin1Fr04_CEM_LIN1
                                   000FB7A7 
    -------------------------------------------------------------------------
NEAR_Z
  Relative segment, address: 000FB7AE - 000FB7B5 (0x8 bytes), align: 0
  Segment part 201.           Intra module refs:   GetLeWWS
                                                   VCAST_RUN_DATA_IF_9
           ENTRY                   ADDRESS         REF BY
           =====                   =======         ======
           CemCem_Lin1Fr03_CEM_LIN1
                                   000FB7AE 
    -------------------------------------------------------------------------
NEAR_Z
  Relative segment, address: 000FB7B6 - 000FB7BC (0x7 bytes), align: 0
  Segment part 202.           Intra module refs:   GetLeWWS
                                                   VCAST_RUN_DATA_IF_9
           ENTRY                   ADDRESS         REF BY
           =====                   =======         ======
           CemCem_Lin1Fr02_CEM_LIN1
                                   000FB7B6 
    -------------------------------------------------------------------------
NEAR_Z
  Relative segment, address: 000FB7BD - 000FB7C2 (0x6 bytes), align: 0
  Segment part 203.           Intra module refs:   GetLeWWS
                                                   GetLsWWS
                                                   RainFunction
                                                   VCAST_RUN_DATA_IF_9
           ENTRY                   ADDRESS         REF BY
           =====                   =======         ======
           CemCem_Lin1Fr01_CEM_LIN1
                                   000FB7BD 
    -------------------------------------------------------------------------
NEAR_Z
  Relative segment, address: 000FB7C3 - 000FB7C3 (0x1 bytes), align: 0
  Segment part 204.           Intra module refs:   CheckErrors
                                                   GetLeWWS
                                                   LightFunction
                                                   StandByMode
                                                   VCAST_RUN_DATA_IF_9
                                                   VoltageDetect
           ENTRY                   ADDRESS         REF BY
           =====                   =======         ======
           uF_VoltageStatus_g      000FB7C3 
    -------------------------------------------------------------------------
NEAR_Z
  Relative segment, address: 000FB7C4 - 000FB7C4 (0x1 bytes), align: 0
  Segment part 205.           Intra module refs:   TemperatureDetect
                                                   VCAST_RUN_DATA_IF_9
           ENTRY                   ADDRESS         REF BY
           =====                   =======         ======
           rb_InternalTemperature_g
                                   000FB7C4 
    -------------------------------------------------------------------------
NEAR_Z
  Relative segment, address: 000FB7C5 - 000FB7C5 (0x1 bytes), align: 0
  Segment part 206.           Intra module refs:   LightFunction
                                                   VCAST_RUN_DATA_IF_9
           ENTRY                   ADDRESS         REF BY
           =====                   =======         ======
           rb_ClockFreq_Error_cnt_g
                                   000FB7C5 
    -------------------------------------------------------------------------
NEAR_Z
  Relative segment, address: 000FB7C6 - 000FB7C6 (0x1 bytes), align: 0
  Segment part 207.           Intra module refs:   CheckErrors
                                                   VCAST_RUN_DATA_IF_9
           ENTRY                   ADDRESS         REF BY
           =====                   =======         ======
           uF_uC_Error_g           000FB7C6 
    -------------------------------------------------------------------------
NEAR_Z
  Relative segment, address: 000FB7C7 - 000FB7C7 (0x1 bytes), align: 0
  Segment part 208.           Intra module refs:   CheckErrors
                                                   CopyRLSData
                                                   VCAST_RUN_DATA_IF_9
           ENTRY                   ADDRESS         REF BY
           =====                   =======         ======
           uF_Diagnose_pre_Flag    000FB7C7 
    -------------------------------------------------------------------------
NEAR_Z
  Relative segment, address: 000FB7C8 - 000FB7C8 (0x1 bytes), align: 0
  Segment part 209.           Intra module refs:   RainFunction
                                                   VCAST_RUN_DATA_IF_9
           ENTRY                   ADDRESS         REF BY
           =====                   =======         ======
           rub_RSIntermDelayInit   000FB7C8 
    -------------------------------------------------------------------------
NEAR_Z
  Relative segment, address: 000FB7C9 - 000FB7C9 (0x1 bytes), align: 0
  Segment part 210.           Intra module refs:   GetLsWWS
                                                   VCAST_RUN_DATA_IF_9
           ENTRY                   ADDRESS         REF BY
           =====                   =======         ======
           rb_LimitMemomryNoWiperReaction_g
                                   000FB7C9 
    -------------------------------------------------------------------------
NEAR_Z
  Relative segment, address: 000FB7CA - 000FB7CA (0x1 bytes), align: 0
  Segment part 211.           Intra module refs:   GetLsWWS
                                                   VCAST_RUN_DATA_IF_9
           ENTRY                   ADDRESS         REF BY
           =====                   =======         ======
           rbi_WiperStarted_g      000FB7CA 
    -------------------------------------------------------------------------
NEAR_Z
  Relative segment, address: 000FB7CB - 000FB7CB (0x1 bytes), align: 0
  Segment part 212.           Intra module refs:   GetLeWWS
                                                   VCAST_RUN_DATA_IF_9
           ENTRY                   ADDRESS         REF BY
           =====                   =======         ======
           rb_LIN_SensitivityShift_g
                                   000FB7CB 
    -------------------------------------------------------------------------
NEAR_Z
  Relative segment, address: 000FB61E - 000FB61F (0x2 bytes), align: 1
  Segment part 213.           Intra module refs:   CheckErrors
                                                   GetLeWWS
                                                   RainFunction
                                                   VCAST_RUN_DATA_IF_9
           ENTRY                   ADDRESS         REF BY
           =====                   =======         ======
           RSStatus                000FB61E 
    -------------------------------------------------------------------------
NEAR_Z
  Relative segment, address: 000FB7CC - 000FB7CC (0x1 bytes), align: 0
  Segment part 214.           Intra module refs:   GetLsWWS
                                                   VCAST_RUN_DATA_IF_9
           ENTRY                   ADDRESS         REF BY
           =====                   =======         ======
           rub_IntermDelayTime     000FB7CC 
    -------------------------------------------------------------------------
NEAR_Z
  Relative segment, address: 000FB7CD - 000FB7CD (0x1 bytes), align: 0
  Segment part 215.           Intra module refs:   ApplLinInit
                                                   GetLeWWS
                                                   VCAST_RUN_DATA_IF_9
           ENTRY                   ADDRESS         REF BY
           =====                   =======         ======
           rb_PotiStageFromBox_g   000FB7CD 
    -------------------------------------------------------------------------
NEAR_Z
  Relative segment, address: 000FB620 - 000FB621 (0x2 bytes), align: 1
  Segment part 216.           Intra module refs:   RainFunction
                                                   VCAST_RUN_DATA_IF_9
           ENTRY                   ADDRESS         REF BY
           =====                   =======         ======
           rw_rain_intensitiy_g    000FB620 
    -------------------------------------------------------------------------
NEAR_Z
  Relative segment, address: 000FB7CE - 000FB7CE (0x1 bytes), align: 0
  Segment part 217.           Intra module refs:   ApplLinInit
                                                   GetLeWWS
                                                   GetLsWWS
                                                   RainFunction
                                                   VCAST_RUN_DATA_IF_9
           ENTRY                   ADDRESS         REF BY
           =====                   =======         ======
           uF_StatusRainsensor_mg
                                   000FB7CE 
    -------------------------------------------------------------------------
NEAR_Z
  Relative segment, address: 000FB7CF - 000FB7CF (0x1 bytes), align: 0
  Segment part 218.           Intra module refs:   GetLeWWS
                                                   VCAST_RUN_DATA_IF_9
           ENTRY                   ADDRESS         REF BY
           =====                   =======         ======
           uF_StatusRainsensor2_mg
                                   000FB7CF 
    -------------------------------------------------------------------------
NEAR_Z
  Relative segment, address: 000FB7D0 - 000FB7D0 (0x1 bytes), align: 0
  Segment part 219.           Intra module refs:   GetLsWWS
                                                   RainFunction
                                                   VCAST_RUN_DATA_IF_9
           ENTRY                   ADDRESS         REF BY
           =====                   =======         ======
           rb_WiperSpeed_g         000FB7D0 
    -------------------------------------------------------------------------
NEAR_Z
  Relative segment, address: 000FB7D1 - 000FB7D1 (0x1 bytes), align: 0
  Segment part 220.           Intra module refs:   RainFunction
                                                   VCAST_RUN_DATA_IF_9
           ENTRY                   ADDRESS         REF BY
           =====                   =======         ======
           rb_WiperSpeedAlt_g      000FB7D1 
    -------------------------------------------------------------------------
NEAR_Z
  Relative segment, address: 000FB7D2 - 000FB7D2 (0x1 bytes), align: 0
  Segment part 221.           Intra module refs:   CheckErrors
                                                   VCAST_RUN_DATA_IF_9
           ENTRY                   ADDRESS         REF BY
           =====                   =======         ======
           uF_LIN_DiagReq2_mg      000FB7D2 
    -------------------------------------------------------------------------
NEAR_Z
  Relative segment, address: 000FB7D3 - 000FB7D3 (0x1 bytes), align: 0
  Segment part 222.           Intra module refs:   CopyRLSData
                                                   GetLightTransmission
                                                   GetUpdateTimeForLightStatus
                                                   Get_BCMVehType
                                                   LightFunction
                                                   OutPutBrightnessValue
                                                   Set_BCMLightOffset
                                                   VCAST_RUN_DATA_IF_9
           ENTRY                   ADDRESS         REF BY
           =====                   =======         ======
           uF_Main_Flags_g         000FB7D3 
    -------------------------------------------------------------------------
NEAR_Z
  Relative segment, address: 000FB7D4 - 000FB7D4 (0x1 bytes), align: 0
  Segment part 223.           Intra module refs:   CheckErrors
                                                   VCAST_RUN_DATA_IF_9
           ENTRY                   ADDRESS         REF BY
           =====                   =======         ======
           rb_RS_LS_Error1_g       000FB7D4 
    -------------------------------------------------------------------------
NEAR_Z
  Relative segment, address: 000FB7D5 - 000FB7D5 (0x1 bytes), align: 0
  Segment part 224.           Intra module refs:   CheckErrors
                                                   VCAST_RUN_DATA_IF_9
           ENTRY                   ADDRESS         REF BY
           =====                   =======         ======
           rb_RS_LS_Error2_g       000FB7D5 
    -------------------------------------------------------------------------
NEAR_Z
  Relative segment, address: 000FB7D6 - 000FB7D6 (0x1 bytes), align: 0
  Segment part 225.           Intra module refs:   CheckErrors
                                                   VCAST_RUN_DATA_IF_9
           ENTRY                   ADDRESS         REF BY
           =====                   =======         ======
           rb_RainS_Error1_g       000FB7D6 
    -------------------------------------------------------------------------
NEAR_Z
  Relative segment, address: 000FB7D7 - 000FB7D7 (0x1 bytes), align: 0
  Segment part 226.           Intra module refs:   CheckErrors
                                                   VCAST_RUN_DATA_IF_9
           ENTRY                   ADDRESS         REF BY
           =====                   =======         ======
           rb_LightS_Error1_g      000FB7D7 
    -------------------------------------------------------------------------
NEAR_Z
  Relative segment, address: 000FB622 - 000FB623 (0x2 bytes), align: 1
  Segment part 227.           Intra module refs:   GetLightTransmission
                                                   Get_BCMVehType
                                                   Set_BCMLightOffset
                                                   VCAST_RUN_DATA_IF_9
           ENTRY                   ADDRESS         REF BY
           =====                   =======         ======
           rw_EEPROM_Address_to_Write_g
                                   000FB622 
    -------------------------------------------------------------------------
NEAR_Z
  Relative segment, address: 000FB7D8 - 000FB7D8 (0x1 bytes), align: 0
  Segment part 228.           Intra module refs:   GetLightTransmission
                                                   Get_BCMVehType
                                                   Set_BCMLightOffset
                                                   VCAST_RUN_DATA_IF_9
           ENTRY                   ADDRESS         REF BY
           =====                   =======         ======
           rb_I2C_EEPROM_bytesToWrite_g
                                   000FB7D8 
    -------------------------------------------------------------------------
NEAR_Z
  Relative segment, address: 000FB624 - 000FB629 (0x6 bytes), align: 1
  Segment part 229.           Intra module refs:   GetLightTransmission
                                                   Get_BCMVehType
                                                   Set_BCMLightOffset
                                                   VCAST_RUN_DATA_IF_9
           ENTRY                   ADDRESS         REF BY
           =====                   =======         ======
           rab_EEPROM_Bytes_toWrite_g
                                   000FB624 
    -------------------------------------------------------------------------
NEAR_Z
  Relative segment, address: 000FB7D9 - 000FB7D9 (0x1 bytes), align: 0
  Segment part 230.           Intra module refs:   CheckErrors
                                                   VCAST_RUN_DATA_IF_9
           ENTRY                   ADDRESS         REF BY
           =====                   =======         ======
           uF_E2ConfigErrorFlags_g
                                   000FB7D9 
    -------------------------------------------------------------------------
NEAR_Z
  Relative segment, address: 000FB7DA - 000FB7DA (0x1 bytes), align: 0
  Segment part 231.           Intra module refs:   GetLeWWS
                                                   GetUpdateTimeForLightStatus
                                                   RainFunction
                                                   VCAST_RUN_DATA_IF_9
                                                   WipeWinterModeCheck
           ENTRY                   ADDRESS         REF BY
           =====                   =======         ======
           rb_speed_in_kmh_g       000FB7DA 
    -------------------------------------------------------------------------
NEAR_Z
  Relative segment, address: 000FB7DB - 000FB7DB (0x1 bytes), align: 0
  Segment part 232.           Intra module refs:   GetLeWWS
                                                   VCAST_RUN_DATA_IF_9
           ENTRY                   ADDRESS         REF BY
           =====                   =======         ======
           rb_LSPotiStage_g        000FB7DB 
    -------------------------------------------------------------------------
NEAR_Z
  Relative segment, address: 000FB7DC - 000FB7DC (0x1 bytes), align: 0
  Segment part 233.           Intra module refs:   CheckErrors
                                                   VCAST_RUN_DATA_IF_9
           ENTRY                   ADDRESS         REF BY
           =====                   =======         ======
           uF_Check_lightsensor_g
                                   000FB7DC 
    -------------------------------------------------------------------------
NEAR_Z
  Relative segment, address: 000FB7DD - 000FB7DD (0x1 bytes), align: 0
  Segment part 234.           Intra module refs:   GetUpdateTimeForLightStatus
                                                   LightFunction
                                                   RainFunction
                                                   VCAST_RUN_DATA_IF_9
           ENTRY                   ADDRESS         REF BY
           =====                   =======         ======
           uF_modi_lightsens_g     000FB7DD 
    -------------------------------------------------------------------------
NEAR_Z
  Relative segment, address: 000FB7DE - 000FB7DE (0x1 bytes), align: 0
  Segment part 235.           Intra module refs:   CheckErrors
                                                   GetUpdateTimeForLightStatus
                                                   LightFunction
                                                   VCAST_RUN_DATA_IF_9
           ENTRY                   ADDRESS         REF BY
           =====                   =======         ======
           uF_LightInternalStatus_g
                                   000FB7DE 
    -------------------------------------------------------------------------
NEAR_Z
  Relative segment, address: 000FB62A - 000FB62B (0x2 bytes), align: 1
  Segment part 236.           Intra module refs:   GetLeWWS
                                                   VCAST_RUN_DATA_IF_9
           ENTRY                   ADDRESS         REF BY
           =====                   =======         ======
           rw_StandbyTimeOutCnt_g
                                   000FB62A 
    -------------------------------------------------------------------------
NEAR_Z
  Relative segment, address: 000FB7DF - 000FB7DF (0x1 bytes), align: 0
  Segment part 237.           Intra module refs:   LightFunction
                                                   VCAST_RUN_DATA_IF_9
           ENTRY                   ADDRESS         REF BY
           =====                   =======         ======
           rb_ASIC_ALSx_ShortDetected_cnt_g
                                   000FB7DF 
    -------------------------------------------------------------------------
NEAR_Z
  Relative segment, address: 000FB7E0 - 000FB7E0 (0x1 bytes), align: 0
  Segment part 238.           Intra module refs:   CheckErrors
                                                   VCAST_RUN_DATA_IF_9
           ENTRY                   ADDRESS         REF BY
           =====                   =======         ======
           rb_ASIC_ALSx_ShortDetected_Error_g
                                   000FB7E0 
    -------------------------------------------------------------------------
NEAR_Z
  Relative segment, address: 000FB7E1 - 000FB7E1 (0x1 bytes), align: 0
  Segment part 239.           Intra module refs:   GetLeWWS
                                                   OutPutBrightnessValue
                                                   OutPutSolarValue
                                                   StandByMode
                                                   VCAST_RUN_DATA_IF_9
           ENTRY                   ADDRESS         REF BY
           =====                   =======         ======
           uF_ASIC_ControlFlags_g
                                   000FB7E1 
    -------------------------------------------------------------------------
NEAR_Z
  Relative segment, address: 000FB7E2 - 000FB7E2 (0x1 bytes), align: 0
  Segment part 240.           Intra module refs:   GetLeWWS
                                                   VCAST_RUN_DATA_IF_9
           ENTRY                   ADDRESS         REF BY
           =====                   =======         ======
           uF_GainAdjustFlags_g    000FB7E2 
    -------------------------------------------------------------------------
NEAR_Z
  Relative segment, address: 000FB7E3 - 000FB7E3 (0x1 bytes), align: 0
  Segment part 241.           Intra module refs:   CheckErrors
                                                   VCAST_RUN_DATA_IF_9
           ENTRY                   ADDRESS         REF BY
           =====                   =======         ======
           uF_ASIC_Error_Flags_g   000FB7E3 
    -------------------------------------------------------------------------
NEAR_Z
  Relative segment, address: 000FB7E4 - 000FB7E4 (0x1 bytes), align: 0
  Segment part 242.           Intra module refs:   CheckErrors
                                                   VCAST_RUN_DATA_IF_9
           ENTRY                   ADDRESS         REF BY
           =====                   =======         ======
           uF_ASIC_Error_Flags1_g
                                   000FB7E4 
    -------------------------------------------------------------------------
NEAR_Z
  Relative segment, address: 000FB7E5 - 000FB7E5 (0x1 bytes), align: 0
  Segment part 243.           Intra module refs:   CheckErrors
                                                   VCAST_RUN_DATA_IF_9
           ENTRY                   ADDRESS         REF BY
           =====                   =======         ======
           uF_ASIC_Ctrl_Error_Flags_g
                                   000FB7E5 
    -------------------------------------------------------------------------
NEAR_Z
  Relative segment, address: 000FB62C - 000FB62D (0x2 bytes), align: 1
  Segment part 244.           Intra module refs:   OutPutSolarValue
                                                   VCAST_RUN_DATA_IF_9
           ENTRY                   ADDRESS         REF BY
           =====                   =======         ======
           rw_Solar_light16bit_1_g
                                   000FB62C 
    -------------------------------------------------------------------------
NEAR_Z
  Relative segment, address: 000FB62E - 000FB62F (0x2 bytes), align: 1
  Segment part 245.           Intra module refs:   OutPutSolarValue
                                                   VCAST_RUN_DATA_IF_9
           ENTRY                   ADDRESS         REF BY
           =====                   =======         ======
           rw_Solar_light16bit_2_g
                                   000FB62E 
    -------------------------------------------------------------------------
NEAR_Z
  Relative segment, address: 000FB630 - 000FB653 (0x24 bytes), align: 1
  Segment part 246.           Intra module refs:   TemperatureDetect
                                                   VCAST_RUN_DATA_IF_9
           ENTRY                   ADDRESS         REF BY
           =====                   =======         ======
           ras_ASIC_MUX_MeasAD_g   000FB630 
    -------------------------------------------------------------------------
NEAR_Z
  Relative segment, address: 000FB7E6 - 000FB7E6 (0x1 bytes), align: 0
  Segment part 247.           Intra module refs:   LightFunction
                                                   VCAST_RUN_DATA_IF_9
           ENTRY                   ADDRESS         REF BY
           =====                   =======         ======
           rb_ASIC_initTimeout_g   000FB7E6 
    -------------------------------------------------------------------------
NEAR_Z
  Relative segment, address: 000FB7E7 - 000FB7E7 (0x1 bytes), align: 0
  Segment part 248.           Intra module refs:   LightFunction
                                                   VCAST_RUN_DATA_IF_9
           ENTRY                   ADDRESS         REF BY
           =====                   =======         ======
           rb_VIref_ErrCnt_g       000FB7E7 
    -------------------------------------------------------------------------
NEAR_Z
  Relative segment, address: 000FB7E8 - 000FB7E8 (0x1 bytes), align: 0
  Segment part 249.           Intra module refs:   LightFunction
                                                   VCAST_RUN_DATA_IF_9
           ENTRY                   ADDRESS         REF BY
           =====                   =======         ======
           rb_ASIC_SPI_ErrorCodeCnt_g
                                   000FB7E8 
    -------------------------------------------------------------------------
NEAR_Z
  Relative segment, address: 000FB7E9 - 000FB7E9 (0x1 bytes), align: 0
  Segment part 250.           Intra module refs:   LightFunction
                                                   VCAST_RUN_DATA_IF_9
           ENTRY                   ADDRESS         REF BY
           =====                   =======         ======
           rb_StaticNoValidAD_cnt_g
                                   000FB7E9 
    -------------------------------------------------------------------------
NEAR_Z
  Relative segment, address: 000FB654 - 000FB655 (0x2 bytes), align: 1
  Segment part 251.           Intra module refs:   LightFunction
                                                   VCAST_RUN_DATA_IF_9
           ENTRY                   ADDRESS         REF BY
           =====                   =======         ======
           rw_SPINoCommCounter_g   000FB654 
    -------------------------------------------------------------------------
NEAR_Z
  Relative segment, address: 000FB7EA - 000FB7EA (0x1 bytes), align: 0
  Segment part 252.           Intra module refs:   VCAST_RUN_DATA_IF_9
                                                   sci_init
           ENTRY                   ADDRESS         REF BY
           =====                   =======         ======
           P_10_1_1                000FB7EA 
    -------------------------------------------------------------------------
<XCODE> 2 (was XCODE)
  Relative segment, address: 00008B50 - 00008B69 (0x1a bytes), align: 0
  Segment part 294.           Intra module refs:   ApplLinInit
           ENTRY                   ADDRESS         REF BY
           =====                   =======         ======
           sci_init                00008B50 
               calls direct
               CSTACK = 00000000 ( 00000006 )
    -------------------------------------------------------------------------
<XCODE> 2 (was XCODE)
  Relative segment, address: 00008B6A - 00008B81 (0x18 bytes), align: 0
  Segment part 295.           Intra module refs:   CopyRLSData
           ENTRY                   ADDRESS         REF BY
           =====                   =======         ======
           Check_StartupActiveErrors
                                   00008B6A 
               calls direct
               CSTACK = 00000000 ( 00000006 )
    -------------------------------------------------------------------------
NEAR_Z
  Relative segment, address: 000FB7EB - 000FB7EB (0x1 bytes), align: 0
  Segment part 253.           Intra module refs:   VCAST_RUN_DATA_IF_9
                                                   get_rb_LightVetoCounter_g
           ENTRY                   ADDRESS         REF BY
           =====                   =======         ======
           R_10_3                  000FB7EB 
    -------------------------------------------------------------------------
<XCODE> 2 (was XCODE)
  Relative segment, address: 00008B82 - 00008B9C (0x1b bytes), align: 0
  Segment part 296.           Intra module refs:   LightFunction
           ENTRY                   ADDRESS         REF BY
           =====                   =======         ======
           get_rb_LightVetoCounter_g
                                   00008B82 
               calls direct
               CSTACK = 00000000 ( 00000006 )
    -------------------------------------------------------------------------
NEAR_Z
  Relative segment, address: 000FB656 - 000FB657 (0x2 bytes), align: 1
  Segment part 254.           Intra module refs:   VCAST_RUN_DATA_IF_9
                                                   get_rw_Amb_light16bit_g
           ENTRY                   ADDRESS         REF BY
           =====                   =======         ======
           R_10_4                  000FB656 
    -------------------------------------------------------------------------
<XCODE> 2 (was XCODE)
  Relative segment, address: 00008B9D - 00008BB7 (0x1b bytes), align: 0
  Segment part 297.           Intra module refs:   OutPutHudValue
                                                   OutPutTwliBriValue
           ENTRY                   ADDRESS         REF BY
           =====                   =======         ======
           get_rw_Amb_light16bit_g
                                   00008B9D 
               calls direct
               CSTACK = 00000000 ( 00000006 )
    -------------------------------------------------------------------------
NEAR_Z
  Relative segment, address: 000FB658 - 000FB65B (0x4 bytes), align: 1
  Segment part 255.           Intra module refs:   VCAST_RUN_DATA_IF_9
                                                   get_rl_HUD_light32bit_g
           ENTRY                   ADDRESS         REF BY
           =====                   =======         ======
           R_10_5                  000FB658 
    -------------------------------------------------------------------------
<XCODE> 2 (was XCODE)
  Relative segment, address: 00008BB8 - 00008BD3 (0x1c bytes), align: 0
  Segment part 298.           Intra module refs:   OutPutHudValue
           ENTRY                   ADDRESS         REF BY
           =====                   =======         ======
           get_rl_HUD_light32bit_g
                                   00008BB8 
               calls direct
               CSTACK = 00000000 ( 00000004 )
    -------------------------------------------------------------------------
NEAR_Z
  Relative segment, address: 000FB65C - 000FB65D (0x2 bytes), align: 1
  Segment part 256.           Intra module refs:   VCAST_RUN_DATA_IF_9
                                                   get_rw_IR_light16bit_g
           ENTRY                   ADDRESS         REF BY
           =====                   =======         ======
           R_10_6                  000FB65C 
    -------------------------------------------------------------------------
<XCODE> 2 (was XCODE)
  Relative segment, address: 00008BD4 - 00008BEE (0x1b bytes), align: 0
  Segment part 299.           Intra module refs:   OutPutSolarValue
           ENTRY                   ADDRESS         REF BY
           =====                   =======         ======
           get_rw_IR_light16bit_g
                                   00008BD4 
               calls direct
               CSTACK = 00000000 ( 00000006 )
    -------------------------------------------------------------------------
NEAR_Z
  Relative segment, address: 000FB7EC - 000FB7EC (0x1 bytes), align: 0
  Segment part 257.           Intra module refs:   VCAST_RUN_DATA_IF_9
                                                   get_rb_LightSignalErrorCnt_g
           ENTRY                   ADDRESS         REF BY
           =====                   =======         ======
           R_10_7                  000FB7EC 
    -------------------------------------------------------------------------
<XCODE> 2 (was XCODE)
  Relative segment, address: 00008BEF - 00008C09 (0x1b bytes), align: 0
  Segment part 300.           Intra module refs:   LightFunction
           ENTRY                   ADDRESS         REF BY
           =====                   =======         ======
           get_rb_LightSignalErrorCnt_g
                                   00008BEF 
               calls direct
               CSTACK = 00000000 ( 00000006 )
    -------------------------------------------------------------------------
NEAR_Z
  Relative segment, address: 000FB7ED - 000FB7ED (0x1 bytes), align: 0
  Segment part 258.           Intra module refs:   VCAST_RUN_DATA_IF_9
                                                   get_rb_VDD_LightSignalErrorCnt_g
           ENTRY                   ADDRESS         REF BY
           =====                   =======         ======
           R_10_8                  000FB7ED 
    -------------------------------------------------------------------------
<XCODE> 2 (was XCODE)
  Relative segment, address: 00008C0A - 00008C24 (0x1b bytes), align: 0
  Segment part 301.           Intra module refs:   LightFunction
           ENTRY                   ADDRESS         REF BY
           =====                   =======         ======
           get_rb_VDD_LightSignalErrorCnt_g
                                   00008C0A 
               calls direct
               CSTACK = 00000000 ( 00000006 )
    -------------------------------------------------------------------------
NEAR_Z
  Relative segment, address: 000FB7EE - 000FB7EE (0x1 bytes), align: 0
  Segment part 259.           Intra module refs:   VCAST_RUN_DATA_IF_9
                                                   get_rb_LEDx_LStop_error_cnt_g
           ENTRY                   ADDRESS         REF BY
           =====                   =======         ======
           R_10_9                  000FB7EE 
    -------------------------------------------------------------------------
<XCODE> 2 (was XCODE)
  Relative segment, address: 00008C25 - 00008C3F (0x1b bytes), align: 0
  Segment part 302.           Intra module refs:   LightFunction
           ENTRY                   ADDRESS         REF BY
           =====                   =======         ======
           get_rb_LEDx_LStop_error_cnt_g
                                   00008C25 
               calls direct
               CSTACK = 00000000 ( 00000006 )
    -------------------------------------------------------------------------
<XCODE> 2 (was XCODE)
  Relative segment, address: 00008C40 - 00008C57 (0x18 bytes), align: 0
  Segment part 303.           Intra module refs:   CopyRLSData
           ENTRY                   ADDRESS         REF BY
           =====                   =======         ======
           CopyRLSDataAsic         00008C40 
               calls direct
               CSTACK = 00000000 ( 00000006 )
    -------------------------------------------------------------------------
<XCODE> 2 (was XCODE)
  Relative segment, address: 00008C58 - 00008F9C (0x345 bytes), align: 0
  Segment part 304.           Intra module refs:   Segment part 377
           ENTRY                   ADDRESS         REF BY
           =====                   =======         ======
           VCAST_DRIVER_9          00008C58        vcast_S3_switch (S3_switch)
               calls direct
               CSTACK = 00000000 ( 00000006 )
    -------------------------------------------------------------------------
<XCODE> 2 (was XCODE)
  Relative segment, address: 00008F9D - 000094E4 (0x548 bytes), align: 0
  Segment part 305.           Intra module refs:   Segment part 378
                                                   Segment part 379
           ENTRY                   ADDRESS         REF BY
           =====                   =======         ======
           VCAST_RUN_DATA_IF_9     00008F9D        vcast_B1_switch (B1_switch)
               calls direct
    -------------------------------------------------------------------------
<XCODE> 2 (was XCODE)
  Relative segment, address: 000094E5 - 0000952E (0x4a bytes), align: 0
  Segment part 306.           Intra module refs:   VCAST_RUN_DATA_IF_9
           ENTRY                   ADDRESS         REF BY
           =====                   =======         ======
           VCAST_TI_9_26           000094E5 
               calls direct
               CSTACK = 00000000 ( 00000004 )
    -------------------------------------------------------------------------
<XCODE> 2 (was XCODE)
  Relative segment, address: 0000952F - 000095A1 (0x73 bytes), align: 0
  Segment part 307.           Intra module refs:   VCAST_RUN_DATA_IF_9
                                                   VCAST_TI_9_111
                                                   VCAST_TI_9_20
                                                   VCAST_TI_9_23
                                                   VCAST_TI_9_27
                                                   VCAST_TI_9_29
                                                   VCAST_TI_9_4
                                                   VCAST_TI_9_41
                                                   VCAST_TI_9_43
                                                   VCAST_TI_9_45
                                                   VCAST_TI_9_53
                                                   VCAST_TI_9_54
                                                   VCAST_TI_9_63
                                                   VCAST_TI_9_64
                                                   VCAST_TI_9_65
                                                   VCAST_TI_9_68
                                                   VCAST_TI_9_70
                                                   VCAST_TI_9_74
                                                   VCAST_TI_9_77
                                                   VCAST_TI_9_79
                                                   VCAST_TI_9_80
                                                   VCAST_TI_9_81
           ENTRY                   ADDRESS         REF BY
           =====                   =======         ======
           VCAST_TI_9_6            0000952F 
               calls direct
               CSTACK = 00000000 ( 00000002 )
    -------------------------------------------------------------------------
<XCODE> 2 (was XCODE)
  Relative segment, address: 000095A2 - 00009619 (0x78 bytes), align: 0
  Segment part 308.           Intra module refs:   VCAST_RUN_DATA_IF_9
                                                   VCAST_TI_9_27
                                                   VCAST_TI_9_38
           ENTRY                   ADDRESS         REF BY
           =====                   =======         ======
           VCAST_TI_9_22           000095A2 
               calls direct
               CSTACK = 00000000 ( 00000002 )
    -------------------------------------------------------------------------
<XCODE> 2 (was XCODE)
  Relative segment, address: 0000961A - 00009663 (0x4a bytes), align: 0
  Segment part 309.           Intra module refs:   VCAST_RUN_DATA_IF_9
           ENTRY                   ADDRESS         REF BY
           =====                   =======         ======
           VCAST_TI_9_28           0000961A 
               calls direct
               CSTACK = 00000000 ( 00000004 )
    -------------------------------------------------------------------------
<XCODE> 2 (was XCODE)
  Relative segment, address: 00009664 - 000096AD (0x4a bytes), align: 0
  Segment part 310.           Intra module refs:   VCAST_RUN_DATA_IF_9
           ENTRY                   ADDRESS         REF BY
           =====                   =======         ======
           VCAST_TI_9_7            00009664 
               calls direct
               CSTACK = 00000000 ( 00000004 )
    -------------------------------------------------------------------------
<XCODE> 2 (was XCODE)
  Relative segment, address: 000096AE - 000096F7 (0x4a bytes), align: 0
  Segment part 311.           Intra module refs:   VCAST_RUN_DATA_IF_9
           ENTRY                   ADDRESS         REF BY
           =====                   =======         ======
           VCAST_TI_9_30           000096AE 
               calls direct
               CSTACK = 00000000 ( 00000004 )
    -------------------------------------------------------------------------
<XCODE> 2 (was XCODE)
  Relative segment, address: 000096F8 - 00009741 (0x4a bytes), align: 0
  Segment part 312.           Intra module refs:   VCAST_RUN_DATA_IF_9
           ENTRY                   ADDRESS         REF BY
           =====                   =======         ======
           VCAST_TI_9_4            000096F8 
               calls direct
               CSTACK = 00000000 ( 00000004 )
    -------------------------------------------------------------------------
<XCODE> 2 (was XCODE)
  Relative segment, address: 00009742 - 0000978B (0x4a bytes), align: 0
  Segment part 313.           Intra module refs:   VCAST_RUN_DATA_IF_9
           ENTRY                   ADDRESS         REF BY
           =====                   =======         ======
           VCAST_TI_9_23           00009742 
               calls direct
               CSTACK = 00000000 ( 00000004 )
    -------------------------------------------------------------------------
<XCODE> 2 (was XCODE)
  Relative segment, address: 0000978C - 000097D5 (0x4a bytes), align: 0
  Segment part 314.           Intra module refs:   VCAST_RUN_DATA_IF_9
           ENTRY                   ADDRESS         REF BY
           =====                   =======         ======
           VCAST_TI_9_40           0000978C 
               calls direct
               CSTACK = 00000000 ( 00000004 )
    -------------------------------------------------------------------------
<XCODE> 2 (was XCODE)
  Relative segment, address: 000097D6 - 0000981F (0x4a bytes), align: 0
  Segment part 315.           Intra module refs:   VCAST_RUN_DATA_IF_9
           ENTRY                   ADDRESS         REF BY
           =====                   =======         ======
           VCAST_TI_9_42           000097D6 
               calls direct
               CSTACK = 00000000 ( 00000004 )
    -------------------------------------------------------------------------
<XCODE> 2 (was XCODE)
  Relative segment, address: 00009820 - 00009869 (0x4a bytes), align: 0
  Segment part 316.           Intra module refs:   VCAST_RUN_DATA_IF_9
           ENTRY                   ADDRESS         REF BY
           =====                   =======         ======
           VCAST_TI_9_44           00009820 
               calls direct
               CSTACK = 00000000 ( 00000004 )
    -------------------------------------------------------------------------
<XCODE> 2 (was XCODE)
  Relative segment, address: 0000986A - 000098B3 (0x4a bytes), align: 0
  Segment part 317.           Intra module refs:   VCAST_RUN_DATA_IF_9
           ENTRY                   ADDRESS         REF BY
           =====                   =======         ======
           VCAST_TI_9_33           0000986A 
               calls direct
               CSTACK = 00000000 ( 00000004 )
    -------------------------------------------------------------------------
<XCODE> 2 (was XCODE)
  Relative segment, address: 000098B4 - 000098FD (0x4a bytes), align: 0
  Segment part 318.           Intra module refs:   VCAST_RUN_DATA_IF_9
           ENTRY                   ADDRESS         REF BY
           =====                   =======         ======
           VCAST_TI_9_35           000098B4 
               calls direct
               CSTACK = 00000000 ( 00000004 )
    -------------------------------------------------------------------------
<XCODE> 2 (was XCODE)
  Relative segment, address: 000098FE - 00009947 (0x4a bytes), align: 0
  Segment part 319.           Intra module refs:   VCAST_RUN_DATA_IF_9
           ENTRY                   ADDRESS         REF BY
           =====                   =======         ======
           VCAST_TI_9_12           000098FE 
               calls direct
               CSTACK = 00000000 ( 00000004 )
    -------------------------------------------------------------------------
<XCODE> 2 (was XCODE)
  Relative segment, address: 00009948 - 00009991 (0x4a bytes), align: 0
  Segment part 320.           Intra module refs:   VCAST_RUN_DATA_IF_9
           ENTRY                   ADDRESS         REF BY
           =====                   =======         ======
           VCAST_TI_9_18           00009948 
               calls direct
               CSTACK = 00000000 ( 00000004 )
    -------------------------------------------------------------------------
<XCODE> 2 (was XCODE)
  Relative segment, address: 00009992 - 000099DB (0x4a bytes), align: 0
  Segment part 321.           Intra module refs:   VCAST_RUN_DATA_IF_9
           ENTRY                   ADDRESS         REF BY
           =====                   =======         ======
           VCAST_TI_9_1            00009992 
               calls direct
               CSTACK = 00000000 ( 00000004 )
    -------------------------------------------------------------------------
<XCODE> 2 (was XCODE)
  Relative segment, address: 000099DC - 00009A25 (0x4a bytes), align: 0
  Segment part 322.           Intra module refs:   VCAST_RUN_DATA_IF_9
           ENTRY                   ADDRESS         REF BY
           =====                   =======         ======
           VCAST_TI_9_16           000099DC 
               calls direct
               CSTACK = 00000000 ( 00000004 )
    -------------------------------------------------------------------------
<XCODE> 2 (was XCODE)
  Relative segment, address: 00009A26 - 00009A6F (0x4a bytes), align: 0
  Segment part 323.           Intra module refs:   VCAST_RUN_DATA_IF_9
           ENTRY                   ADDRESS         REF BY
           =====                   =======         ======
           VCAST_TI_9_14           00009A26 
               calls direct
               CSTACK = 00000000 ( 00000004 )
    -------------------------------------------------------------------------
<XCODE> 2 (was XCODE)
  Relative segment, address: 00009A70 - 00009AB9 (0x4a bytes), align: 0
  Segment part 324.           Intra module refs:   VCAST_RUN_DATA_IF_9
           ENTRY                   ADDRESS         REF BY
           =====                   =======         ======
           VCAST_TI_9_10           00009A70 
               calls direct
               CSTACK = 00000000 ( 00000004 )
    -------------------------------------------------------------------------
<XCODE> 2 (was XCODE)
  Relative segment, address: 00009ABA - 00009B03 (0x4a bytes), align: 0
  Segment part 325.           Intra module refs:   VCAST_RUN_DATA_IF_9
           ENTRY                   ADDRESS         REF BY
           =====                   =======         ======
           VCAST_TI_9_24           00009ABA 
               calls direct
               CSTACK = 00000000 ( 00000004 )
    -------------------------------------------------------------------------
<XCODE> 2 (was XCODE)
  Relative segment, address: 00009B04 - 00009B4D (0x4a bytes), align: 0
  Segment part 326.           Intra module refs:   VCAST_RUN_DATA_IF_9
           ENTRY                   ADDRESS         REF BY
           =====                   =======         ======
           VCAST_TI_9_20           00009B04 
               calls direct
               CSTACK = 00000000 ( 00000004 )
    -------------------------------------------------------------------------
<XCODE> 2 (was XCODE)
  Relative segment, address: 00009B4E - 00009C36 (0xe9 bytes), align: 0
  Segment part 327.           Intra module refs:   VCAST_RUN_DATA_IF_9
           ENTRY                   ADDRESS         REF BY
           =====                   =======         ======
           VCAST_TI_9_54           00009B4E 
               calls direct
               CSTACK = 00000000 ( 0000001A )
    -------------------------------------------------------------------------
<XCODE> 2 (was XCODE)
  Relative segment, address: 00009C37 - 00009CFA (0xc4 bytes), align: 0
  Segment part 328.           Intra module refs:   VCAST_RUN_DATA_IF_9
           ENTRY                   ADDRESS         REF BY
           =====                   =======         ======
           VCAST_TI_9_37           00009C37 
               calls direct
               CSTACK = 00000000 ( 00000014 )
    -------------------------------------------------------------------------
<XCODE> 2 (was XCODE)
  Relative segment, address: 00009CFB - 00009DBE (0xc4 bytes), align: 0
  Segment part 329.           Intra module refs:   VCAST_RUN_DATA_IF_9
           ENTRY                   ADDRESS         REF BY
           =====                   =======         ======
           VCAST_TI_9_50           00009CFB 
               calls direct
               CSTACK = 00000000 ( 00000014 )
    -------------------------------------------------------------------------
<XCODE> 2 (was XCODE)
  Relative segment, address: 00009DBF - 00009E82 (0xc4 bytes), align: 0
  Segment part 330.           Intra module refs:   VCAST_RUN_DATA_IF_9
           ENTRY                   ADDRESS         REF BY
           =====                   =======         ======
           VCAST_TI_9_49           00009DBF 
               calls direct
               CSTACK = 00000000 ( 00000014 )
    -------------------------------------------------------------------------
<XCODE> 2 (was XCODE)
  Relative segment, address: 00009E83 - 00009F42 (0xc0 bytes), align: 0
  Segment part 331.           Intra module refs:   VCAST_RUN_DATA_IF_9
                                                   VCAST_TI_9_49
                                                   VCAST_TI_9_50
           ENTRY                   ADDRESS         REF BY
           =====                   =======         ======
           VCAST_TI_9_39           00009E83 
               calls direct
               CSTACK = 00000000 ( 00000006 )
    -------------------------------------------------------------------------
<XCODE> 2 (was XCODE)
  Relative segment, address: 00009F43 - 0000A02B (0xe9 bytes), align: 0
  Segment part 332.           Intra module refs:   VCAST_RUN_DATA_IF_9
           ENTRY                   ADDRESS         REF BY
           =====                   =======         ======
           VCAST_TI_9_53           00009F43 
               calls direct
               CSTACK = 00000000 ( 0000000A )
    -------------------------------------------------------------------------
<XCODE> 2 (was XCODE)
  Relative segment, address: 0000A02C - 0000A114 (0xe9 bytes), align: 0
  Segment part 333.           Intra module refs:   VCAST_TI_9_26
           ENTRY                   ADDRESS         REF BY
           =====                   =======         ======
           VCAST_TI_9_68           0000A02C 
               calls direct
               CSTACK = 00000000 ( 0000001A )
    -------------------------------------------------------------------------
<XCODE> 2 (was XCODE)
  Relative segment, address: 0000A115 - 0000A406 (0x2f2 bytes), align: 0
  Segment part 334.           Intra module refs:   Segment part 380
                                                   VCAST_TI_9_26
           ENTRY                   ADDRESS         REF BY
           =====                   =======         ======
           VCAST_TI_9_27           0000A115 
               calls direct
               CSTACK = 00000000 ( 00000002 )
    -------------------------------------------------------------------------
<XCODE> 2 (was XCODE)
  Relative segment, address: 0000A407 - 0000A4EF (0xe9 bytes), align: 0
  Segment part 335.           Intra module refs:   VCAST_TI_9_28
           ENTRY                   ADDRESS         REF BY
           =====                   =======         ======
           VCAST_TI_9_79           0000A407 
               calls direct
               CSTACK = 00000000 ( 0000001A )
    -------------------------------------------------------------------------
<XCODE> 2 (was XCODE)
  Relative segment, address: 0000A4F0 - 0000A80D (0x31e bytes), align: 0
  Segment part 336.           Intra module refs:   Segment part 381
                                                   VCAST_TI_9_28
           ENTRY                   ADDRESS         REF BY
           =====                   =======         ======
           VCAST_TI_9_29           0000A4F0 
               calls direct
               CSTACK = 00000000 ( 00000002 )
    -------------------------------------------------------------------------
<XCODE> 2 (was XCODE)
  Relative segment, address: 0000A80E - 0000A8F2 (0xe5 bytes), align: 0
  Segment part 337.           Intra module refs:   VCAST_TI_9_18
                                                   VCAST_TI_9_7
           ENTRY                   ADDRESS         REF BY
           =====                   =======         ======
           VCAST_TI_9_80           0000A80E 
               calls direct
               CSTACK = 00000000 ( 0000001A )
    -------------------------------------------------------------------------
<XCODE> 2 (was XCODE)
  Relative segment, address: 0000A8F3 - 0000A9AD (0xbb bytes), align: 0
  Segment part 338.           Intra module refs:   VCAST_TI_9_7
           ENTRY                   ADDRESS         REF BY
           =====                   =======         ======
           VCAST_TI_9_8            0000A8F3 
               calls direct
               CSTACK = 00000000 ( 00000014 )
    -------------------------------------------------------------------------
<XCODE> 2 (was XCODE)
  Relative segment, address: 0000A9AE - 0000AA96 (0xe9 bytes), align: 0
  Segment part 339.           Intra module refs:   VCAST_TI_9_30
           ENTRY                   ADDRESS         REF BY
           =====                   =======         ======
           VCAST_TI_9_81           0000A9AE 
               calls direct
               CSTACK = 00000000 ( 0000001A )
    -------------------------------------------------------------------------
<XCODE> 2 (was XCODE)
  Relative segment, address: 0000AA97 - 0000AB57 (0xc1 bytes), align: 0
  Segment part 340.           Intra module refs:   VCAST_TI_9_30
           ENTRY                   ADDRESS         REF BY
           =====                   =======         ======
           VCAST_TI_9_31           0000AA97 
               calls direct
               CSTACK = 00000000 ( 00000014 )
    -------------------------------------------------------------------------
<XCODE> 2 (was XCODE)
  Relative segment, address: 0000AB58 - 0000AD0D (0x1b6 bytes), align: 0
  Segment part 341.           Intra module refs:   Segment part 382
                                                   VCAST_TI_9_23
                                                   VCAST_TI_9_4
           ENTRY                   ADDRESS         REF BY
           =====                   =======         ======
           VCAST_TI_9_5            0000AB58 
               calls direct
               CSTACK = 00000000 ( 00000026 )
    -------------------------------------------------------------------------
<XCODE> 2 (was XCODE)
  Relative segment, address: 0000AD0E - 0000ADF6 (0xe9 bytes), align: 0
  Segment part 342.           Intra module refs:   VCAST_TI_9_27
                                                   VCAST_TI_9_29
                                                   VCAST_TI_9_40
           ENTRY                   ADDRESS         REF BY
           =====                   =======         ======
           VCAST_TI_9_41           0000AD0E 
               calls direct
               CSTACK = 00000000 ( 0000001A )
    -------------------------------------------------------------------------
<XCODE> 2 (was XCODE)
  Relative segment, address: 0000ADF7 - 0000AECD (0xd7 bytes), align: 0
  Segment part 343.           Intra module refs:   VCAST_TI_9_40
           ENTRY                   ADDRESS         REF BY
           =====                   =======         ======
           VCAST_TI_9_55           0000ADF7 
               calls direct
               CSTACK = 00000000 ( 00000016 )
    -------------------------------------------------------------------------
<XCODE> 2 (was XCODE)
  Relative segment, address: 0000AECE - 0000AFB6 (0xe9 bytes), align: 0
  Segment part 344.           Intra module refs:   VCAST_TI_9_12
                                                   VCAST_TI_9_14
                                                   VCAST_TI_9_27
                                                   VCAST_TI_9_29
                                                   VCAST_TI_9_33
                                                   VCAST_TI_9_35
                                                   VCAST_TI_9_42
           ENTRY                   ADDRESS         REF BY
           =====                   =======         ======
           VCAST_TI_9_43           0000AECE 
               calls direct
               CSTACK = 00000000 ( 0000001A )
    -------------------------------------------------------------------------
<XCODE> 2 (was XCODE)
  Relative segment, address: 0000AFB7 - 0000B136 (0x180 bytes), align: 0
  Segment part 345.           Intra module refs:   Segment part 383
                                                   VCAST_TI_9_42
           ENTRY                   ADDRESS         REF BY
           =====                   =======         ======
           VCAST_TI_9_59           0000AFB7 
               calls direct
               CSTACK = 00000000 ( 00000026 )
    -------------------------------------------------------------------------
<XCODE> 2 (was XCODE)
  Relative segment, address: 0000B137 - 0000B21F (0xe9 bytes), align: 0
  Segment part 346.           Intra module refs:   VCAST_TI_9_1
                                                   VCAST_TI_9_10
                                                   VCAST_TI_9_16
                                                   VCAST_TI_9_44
           ENTRY                   ADDRESS         REF BY
           =====                   =======         ======
           VCAST_TI_9_45           0000B137 
               calls direct
               CSTACK = 00000000 ( 0000001A )
    -------------------------------------------------------------------------
<XCODE> 2 (was XCODE)
  Relative segment, address: 0000B220 - 0000B371 (0x152 bytes), align: 0
  Segment part 347.           Intra module refs:   Segment part 384
                                                   VCAST_TI_9_44
           ENTRY                   ADDRESS         REF BY
           =====                   =======         ======
           VCAST_TI_9_57           0000B220 
               calls direct
               CSTACK = 00000000 ( 00000022 )
    -------------------------------------------------------------------------
<XCODE> 2 (was XCODE)
  Relative segment, address: 0000B372 - 0000B5D8 (0x267 bytes), align: 0
  Segment part 348.           Intra module refs:   Segment part 385
                                                   VCAST_TI_9_33
           ENTRY                   ADDRESS         REF BY
           =====                   =======         ======
           VCAST_TI_9_34           0000B372 
               calls direct
               CSTACK = 00000000 ( 00000036 )
    -------------------------------------------------------------------------
<XCODE> 2 (was XCODE)
  Relative segment, address: 0000B5D9 - 0000B89C (0x2c4 bytes), align: 0
  Segment part 349.           Intra module refs:   Segment part 386
                                                   VCAST_TI_9_35
           ENTRY                   ADDRESS         REF BY
           =====                   =======         ======
           VCAST_TI_9_36           0000B5D9 
               calls direct
               CSTACK = 00000000 ( 0000003A )
    -------------------------------------------------------------------------
<XCODE> 2 (was XCODE)
  Relative segment, address: 0000B89D - 0000BCDD (0x441 bytes), align: 0
  Segment part 350.           Intra module refs:   Segment part 387
                                                   VCAST_TI_9_12
           ENTRY                   ADDRESS         REF BY
           =====                   =======         ======
           VCAST_TI_9_13           0000B89D 
               calls direct
               CSTACK = 00000000 ( 00000056 )
    -------------------------------------------------------------------------
<XCODE> 2 (was XCODE)
  Relative segment, address: 0000BCDE - 0000BE14 (0x137 bytes), align: 0
  Segment part 351.           Intra module refs:   VCAST_TI_9_18
           ENTRY                   ADDRESS         REF BY
           =====                   =======         ======
           VCAST_TI_9_19           0000BCDE 
               calls direct
               CSTACK = 00000000 ( 0000001A )
    -------------------------------------------------------------------------
<XCODE> 2 (was XCODE)
  Relative segment, address: 0000BE15 - 0000C05B (0x247 bytes), align: 0
  Segment part 352.           Intra module refs:   Segment part 388
                                                   VCAST_TI_9_1
           ENTRY                   ADDRESS         REF BY
           =====                   =======         ======
           VCAST_TI_9_2            0000BE15 
               calls direct
               CSTACK = 00000000 ( 00000032 )
    -------------------------------------------------------------------------
<XCODE> 2 (was XCODE)
  Relative segment, address: 0000C05C - 0000C241 (0x1e6 bytes), align: 0
  Segment part 353.           Intra module refs:   Segment part 389
                                                   VCAST_TI_9_16
           ENTRY                   ADDRESS         REF BY
           =====                   =======         ======
           VCAST_TI_9_17           0000C05C 
               calls direct
               CSTACK = 00000000 ( 0000002A )
    -------------------------------------------------------------------------
<XCODE> 2 (was XCODE)
  Relative segment, address: 0000C242 - 0000C56B (0x32a bytes), align: 0
  Segment part 354.           Intra module refs:   Segment part 390
                                                   VCAST_TI_9_14
           ENTRY                   ADDRESS         REF BY
           =====                   =======         ======
           VCAST_TI_9_15           0000C242 
               calls direct
               CSTACK = 00000000 ( 0000003E )
    -------------------------------------------------------------------------
<XCODE> 2 (was XCODE)
  Relative segment, address: 0000C56C - 0000C84F (0x2e4 bytes), align: 0
  Segment part 355.           Intra module refs:   Segment part 391
                                                   VCAST_TI_9_10
           ENTRY                   ADDRESS         REF BY
           =====                   =======         ======
           VCAST_TI_9_11           0000C56C 
               calls direct
               CSTACK = 00000000 ( 0000003A )
    -------------------------------------------------------------------------
<XCODE> 2 (was XCODE)
  Relative segment, address: 0000C850 - 0000C938 (0xe9 bytes), align: 0
  Segment part 356.           Intra module refs:   VCAST_TI_9_24
                                                   VCAST_TI_9_29
           ENTRY                   ADDRESS         REF BY
           =====                   =======         ======
           VCAST_TI_9_111          0000C850 
               calls direct
               CSTACK = 00000000 ( 0000001A )
    -------------------------------------------------------------------------
<XCODE> 2 (was XCODE)
  Relative segment, address: 0000C939 - 0000CE7A (0x542 bytes), align: 0
  Segment part 357.           Intra module refs:   Segment part 392
                                                   VCAST_TI_9_24
           ENTRY                   ADDRESS         REF BY
           =====                   =======         ======
           VCAST_TI_9_25           0000C939 
               calls direct
               CSTACK = 00000000 ( 00000062 )
    -------------------------------------------------------------------------
<XCODE> 2 (was XCODE)
  Relative segment, address: 0000CE7B - 0000D09E (0x224 bytes), align: 0
  Segment part 358.           Intra module refs:   Segment part 393
                                                   VCAST_TI_9_20
           ENTRY                   ADDRESS         REF BY
           =====                   =======         ======
           VCAST_TI_9_21           0000CE7B 
               calls direct
               CSTACK = 00000000 ( 00000026 )
    -------------------------------------------------------------------------
<XCODE> 2 (was XCODE)
  Relative segment, address: 0000D09F - 0000D0C6 (0x28 bytes), align: 0
  Segment part 359.           Intra module refs:   VCAST_TI_9_37
           ENTRY                   ADDRESS         REF BY
           =====                   =======         ======
           VCAST_TI_9_38           0000D09F 
               calls direct
               CSTACK = 00000000 ( 00000002 )
    -------------------------------------------------------------------------
<XCODE> 2 (was XCODE)
  Relative segment, address: 0000D0C7 - 0000D1AF (0xe9 bytes), align: 0
  Segment part 360.           Intra module refs:   VCAST_TI_9_27
           ENTRY                   ADDRESS         REF BY
           =====                   =======         ======
           VCAST_TI_9_63           0000D0C7 
               calls direct
               CSTACK = 00000000 ( 0000001A )
    -------------------------------------------------------------------------
<XCODE> 2 (was XCODE)
  Relative segment, address: 0000D1B0 - 0000D298 (0xe9 bytes), align: 0
  Segment part 361.           Intra module refs:   VCAST_TI_9_27
           ENTRY                   ADDRESS         REF BY
           =====                   =======         ======
           VCAST_TI_9_64           0000D1B0 
               calls direct
               CSTACK = 00000000 ( 0000001A )
    -------------------------------------------------------------------------
<XCODE> 2 (was XCODE)
  Relative segment, address: 0000D299 - 0000D381 (0xe9 bytes), align: 0
  Segment part 362.           Intra module refs:   VCAST_TI_9_27
           ENTRY                   ADDRESS         REF BY
           =====                   =======         ======
           VCAST_TI_9_65           0000D299 
               calls direct
               CSTACK = 00000000 ( 0000001A )
    -------------------------------------------------------------------------
<XCODE> 2 (was XCODE)
  Relative segment, address: 0000D382 - 0000D445 (0xc4 bytes), align: 0
  Segment part 363.           Intra module refs:   VCAST_TI_9_29
           ENTRY                   ADDRESS         REF BY
           =====                   =======         ======
           VCAST_TI_9_72           0000D382 
               calls direct
               CSTACK = 00000000 ( 00000014 )
    -------------------------------------------------------------------------
<XCODE> 2 (was XCODE)
  Relative segment, address: 0000D446 - 0000D52E (0xe9 bytes), align: 0
  Segment part 364.           Intra module refs:   VCAST_TI_9_29
           ENTRY                   ADDRESS         REF BY
           =====                   =======         ======
           VCAST_TI_9_74           0000D446 
               calls direct
               CSTACK = 00000000 ( 0000001A )
    -------------------------------------------------------------------------
<XCODE> 2 (was XCODE)
  Relative segment, address: 0000D52F - 0000D617 (0xe9 bytes), align: 0
  Segment part 365.           Intra module refs:   VCAST_TI_9_29
           ENTRY                   ADDRESS         REF BY
           =====                   =======         ======
           VCAST_TI_9_77           0000D52F 
               calls direct
               CSTACK = 00000000 ( 0000001A )
    -------------------------------------------------------------------------
<XCODE> 2 (was XCODE)
  Relative segment, address: 0000D618 - 0000D7CD (0x1b6 bytes), align: 0
  Segment part 366.           Intra module refs:   Segment part 394
                                                   VCAST_TI_9_8
           ENTRY                   ADDRESS         REF BY
           =====                   =======         ======
           VCAST_TI_9_9            0000D618 
               calls direct
               CSTACK = 00000000 ( 00000026 )
    -------------------------------------------------------------------------
<XCODE> 2 (was XCODE)
  Relative segment, address: 0000D7CE - 0000DB1F (0x352 bytes), align: 0
  Segment part 367.           Intra module refs:   Segment part 395
                                                   VCAST_TI_9_31
           ENTRY                   ADDRESS         REF BY
           =====                   =======         ======
           VCAST_TI_9_32           0000D7CE 
               calls direct
               CSTACK = 00000000 ( 00000046 )
    -------------------------------------------------------------------------
<XCODE> 2 (was XCODE)
  Relative segment, address: 0000DB20 - 0000DBDE (0xbf bytes), align: 0
  Segment part 368.           Intra module refs:   Segment part 396
                                                   VCAST_TI_9_72
           ENTRY                   ADDRESS         REF BY
           =====                   =======         ======
           VCAST_TI_9_70           0000DB20 
               calls direct
               CSTACK = 00000000 ( 00000002 )
    -------------------------------------------------------------------------
<XCODE> 2 (was XCODE)
  Relative segment, address: 0000DBDF - 0000E2C0 (0x6e2 bytes), align: 0
  Segment part 369.
           ENTRY                   ADDRESS         REF BY
           =====                   =======         ======
           VCAST_TI_RANGE_DATA_9   0000DBDF        vcast_B1_switch (B1_switch)
               calls direct
               CSTACK = 00000000 ( 00000006 )
    -------------------------------------------------------------------------
<XCODE> 2 (was XCODE)
  Relative segment, address: 0000E2C1 - 0000E2C1 (0x1 bytes), align: 0
  Segment part 370.           Intra module refs:   VCAST_USER_CODE_UNIT_9
           ENTRY                   ADDRESS         REF BY
           =====                   =======         ======
           vCAST_VALUE_USER_CODE_9
                                   0000E2C1 
    -------------------------------------------------------------------------
<XCODE> 2 (was XCODE)
  Relative segment, address: 0000E2C2 - 0000E2C2 (0x1 bytes), align: 0
  Segment part 371.           Intra module refs:   VCAST_USER_CODE_UNIT_9
           ENTRY                   ADDRESS         REF BY
           =====                   =======         ======
           vCAST_EXPECTED_USER_CODE_9
                                   0000E2C2 
    -------------------------------------------------------------------------
<XCODE> 2 (was XCODE)
  Relative segment, address: 0000E2C3 - 0000E2C3 (0x1 bytes), align: 0
  Segment part 372.           Intra module refs:   VCAST_USER_CODE_UNIT_9
           ENTRY                   ADDRESS         REF BY
           =====                   =======         ======
           vCAST_EGLOBALS_USER_CODE_9
                                   0000E2C3 
    -------------------------------------------------------------------------
<XCODE> 2 (was XCODE)
  Relative segment, address: 0000E2C4 - 0000E2C8 (0x5 bytes), align: 0
  Segment part 373.           Intra module refs:   vCAST_COMMON_STUB_PROC_9
           ENTRY                   ADDRESS         REF BY
           =====                   =======         ======
           vCAST_STUB_PROCESSING_9
                                   0000E2C4 
               calls direct
    -------------------------------------------------------------------------
<XCODE> 2 (was XCODE)
  Relative segment, address: 0000E2C9 - 0000E2CD (0x5 bytes), align: 0
  Segment part 374.           Intra module refs:   vCAST_COMMON_STUB_PROC_9
           ENTRY                   ADDRESS         REF BY
           =====                   =======         ======
           vCAST_BEGIN_STUB_PROC_9
                                   0000E2C9 
               calls direct
    -------------------------------------------------------------------------
<XCODE> 2 (was XCODE)
  Relative segment, address: 0000E2CE - 0000E2E9 (0x1c bytes), align: 0
  Segment part 375.
           ENTRY                   ADDRESS         REF BY
           =====                   =======         ======
           VCAST_USER_CODE_UNIT_9
                                   0000E2CE        vcast_B4_switch (B4_switch)
               calls direct
    -------------------------------------------------------------------------
<XCODE> 2 (was XCODE)
  Relative segment, address: 0000E2EA - 0000E344 (0x5b bytes), align: 0
  Segment part 376.           Intra module refs:   Check_StartupActiveErrors
                                                   CopyRLSDataAsic
                                                   get_rb_LEDx_LStop_error_cnt_g
                                                   get_rb_LightSignalErrorCnt_g
                                                   get_rb_LightVetoCounter_g
                                                   get_rb_VDD_LightSignalErrorCnt_g
                                                   get_rl_HUD_light32bit_g
                                                   get_rw_Amb_light16bit_g
                                                   get_rw_IR_light16bit_g
                                                   sci_init
           ENTRY                   ADDRESS         REF BY
           =====                   =======         ======
           vCAST_COMMON_STUB_PROC_9
                                   0000E2EA 
               calls direct
               CSTACK = 00000002 ( 00000008 )
    -------------------------------------------------------------------------
NEAR_ID
  Relative segment, address: 00000BDC - 00000BDD (0x2 bytes), align: 1
  Segment part 119.           Intra module refs:   rb_OutsideTemp_mg
    -------------------------------------------------------------------------
NEAR_ID
  Relative segment, address: 00000C32 - 00000C32 (0x1 bytes), align: 0
  Segment part 121.           Intra module refs:   rb_WipeWorkStatus_mg
    -------------------------------------------------------------------------
NEAR_ID
  Relative segment, address: 00000C33 - 00000C33 (0x1 bytes), align: 0
  Segment part 146.           Intra module refs:   OutPutBrightnessValue::rb_InitLightValCnt_l
    -------------------------------------------------------------------------
CLTVEC
  Relative segment, address: 00000080 - 00000081 (0x2 bytes), align: 1
  Segment part 260.           Intra module refs:   VCAST_DRIVER_9
           ENTRY                   ADDRESS         REF BY
           =====                   =======         ======
           __T_ApplLinSlavePreCopy
                                   00000080 
    -------------------------------------------------------------------------
<FSWITCH> 1 (was FSWITCH)
  Relative segment, address: 00000F2A - 00000F75 (0x4c bytes), align: 1
  Segment part 377.           Intra module refs:   VCAST_DRIVER_9
    -------------------------------------------------------------------------
<FSWITCH> 1 (was FSWITCH)
  Relative segment, address: 00000ECC - 00000F29 (0x5e bytes), align: 1
  Segment part 378.           Intra module refs:   VCAST_RUN_DATA_IF_9
    -------------------------------------------------------------------------
<FSWITCH> 1 (was FSWITCH)
  Relative segment, address: 00000C34 - 00000D13 (0xe0 bytes), align: 1
  Segment part 379.           Intra module refs:   VCAST_RUN_DATA_IF_9
    -------------------------------------------------------------------------
<FSWITCH> 1 (was FSWITCH)
  Relative segment, address: 00000E3E - 00000ECB (0x8e bytes), align: 1
  Segment part 380.           Intra module refs:   VCAST_TI_9_27
    -------------------------------------------------------------------------
<FSWITCH> 1 (was FSWITCH)
  Relative segment, address: 00000D14 - 00000DA9 (0x96 bytes), align: 1
  Segment part 381.           Intra module refs:   VCAST_TI_9_29
    -------------------------------------------------------------------------
<FSWITCH> 1 (was FSWITCH)
  Relative segment, address: 00001118 - 0000112D (0x16 bytes), align: 1
  Segment part 382.           Intra module refs:   VCAST_TI_9_5
    -------------------------------------------------------------------------
<FSWITCH> 1 (was FSWITCH)
  Relative segment, address: 00001144 - 00001159 (0x16 bytes), align: 1
  Segment part 383.           Intra module refs:   VCAST_TI_9_59
    -------------------------------------------------------------------------
<FSWITCH> 1 (was FSWITCH)
  Relative segment, address: 00001170 - 00001183 (0x14 bytes), align: 1
  Segment part 384.           Intra module refs:   VCAST_TI_9_57
    -------------------------------------------------------------------------
<FSWITCH> 1 (was FSWITCH)
  Relative segment, address: 000010AA - 000010C7 (0x1e bytes), align: 1
  Segment part 385.           Intra module refs:   VCAST_TI_9_34
    -------------------------------------------------------------------------
<FSWITCH> 1 (was FSWITCH)
  Relative segment, address: 0000106A - 00001089 (0x20 bytes), align: 1
  Segment part 386.           Intra module refs:   VCAST_TI_9_36
    -------------------------------------------------------------------------
<FSWITCH> 1 (was FSWITCH)
  Relative segment, address: 00000FAA - 00000FD7 (0x2e bytes), align: 1
  Segment part 387.           Intra module refs:   VCAST_TI_9_13
    -------------------------------------------------------------------------
<FSWITCH> 1 (was FSWITCH)
  Relative segment, address: 000010C8 - 000010E3 (0x1c bytes), align: 1
  Segment part 388.           Intra module refs:   VCAST_TI_9_2
    -------------------------------------------------------------------------
<FSWITCH> 1 (was FSWITCH)
  Relative segment, address: 00001100 - 00001117 (0x18 bytes), align: 1
  Segment part 389.           Intra module refs:   VCAST_TI_9_17
    -------------------------------------------------------------------------
<FSWITCH> 1 (was FSWITCH)
  Relative segment, address: 00001048 - 00001069 (0x22 bytes), align: 1
  Segment part 390.           Intra module refs:   VCAST_TI_9_15
    -------------------------------------------------------------------------
<FSWITCH> 1 (was FSWITCH)
  Relative segment, address: 0000108A - 000010A9 (0x20 bytes), align: 1
  Segment part 391.           Intra module refs:   VCAST_TI_9_11
    -------------------------------------------------------------------------
<FSWITCH> 1 (was FSWITCH)
  Relative segment, address: 00000F76 - 00000FA9 (0x34 bytes), align: 1
  Segment part 392.           Intra module refs:   VCAST_TI_9_25
    -------------------------------------------------------------------------
<FSWITCH> 1 (was FSWITCH)
  Relative segment, address: 0000112E - 00001143 (0x16 bytes), align: 1
  Segment part 393.           Intra module refs:   VCAST_TI_9_21
    -------------------------------------------------------------------------
<FSWITCH> 1 (was FSWITCH)
  Relative segment, address: 0000115A - 0000116F (0x16 bytes), align: 1
  Segment part 394.           Intra module refs:   VCAST_TI_9_9
    -------------------------------------------------------------------------
<FSWITCH> 1 (was FSWITCH)
  Relative segment, address: 00001000 - 00001025 (0x26 bytes), align: 1
  Segment part 395.           Intra module refs:   VCAST_TI_9_32
    -------------------------------------------------------------------------
<FSWITCH> 1 (was FSWITCH)
  Relative segment, address: 00000FD8 - 00000FFF (0x28 bytes), align: 1
  Segment part 396.           Intra module refs:   VCAST_TI_9_70
    -------------------------------------------------------------------------
NEAR_CONST
  Relative segment, address: 000F347A - 000F3481 (0x8 bytes), align: 1
  Segment part 3.             Intra module refs:   GetLeWWS
    -------------------------------------------------------------------------
NEAR_CONST
  Relative segment, address: 000F3482 - 000F3489 (0x8 bytes), align: 1
  Segment part 4.             Intra module refs:   GetLeWWS
    -------------------------------------------------------------------------
NEAR_CONST
  Relative segment, address: 000F348A - 000F3491 (0x8 bytes), align: 1
  Segment part 5.             Intra module refs:   GetLsWWS
    -------------------------------------------------------------------------
NEAR_CONST
  Relative segment, address: 000F3492 - 000F3499 (0x8 bytes), align: 1
  Segment part 6.             Intra module refs:   CopyRLSData
    -------------------------------------------------------------------------
NEAR_CONST
  Relative segment, address: 000F349A - 000F34A1 (0x8 bytes), align: 1
  Segment part 7.             Intra module refs:   CopyRLSData
    -------------------------------------------------------------------------
NEAR_CONST
  Relative segment, address: 000F34A2 - 000F34A9 (0x8 bytes), align: 1
  Segment part 8.             Intra module refs:   RainFunction
    -------------------------------------------------------------------------
NEAR_CONST
  Relative segment, address: 000F34AA - 000F34B1 (0x8 bytes), align: 1
  Segment part 9.             Intra module refs:   LightFunction
    -------------------------------------------------------------------------
NEAR_CONST
  Relative segment, address: 000F34B2 - 000F34B9 (0x8 bytes), align: 1
  Segment part 10.            Intra module refs:   LightFunction
    -------------------------------------------------------------------------
NEAR_CONST
  Relative segment, address: 000F34BA - 000F34C1 (0x8 bytes), align: 1
  Segment part 11.            Intra module refs:   LightFunction
    -------------------------------------------------------------------------
NEAR_CONST
  Relative segment, address: 000F34C2 - 000F34C9 (0x8 bytes), align: 1
  Segment part 12.            Intra module refs:   Humidity_Function
    -------------------------------------------------------------------------
NEAR_CONST
  Relative segment, address: 000F34CA - 000F34D1 (0x8 bytes), align: 1
  Segment part 13.            Intra module refs:   StandByMode
    -------------------------------------------------------------------------
NEAR_CONST
  Relative segment, address: 000F34D2 - 000F34D9 (0x8 bytes), align: 1
  Segment part 14.            Intra module refs:   VoltageDetect
    -------------------------------------------------------------------------
NEAR_CONST
  Relative segment, address: 000F34DA - 000F34E1 (0x8 bytes), align: 1
  Segment part 15.            Intra module refs:   TemperatureDetect
    -------------------------------------------------------------------------
NEAR_CONST
  Relative segment, address: 000F34E2 - 000F34E9 (0x8 bytes), align: 1
  Segment part 16.            Intra module refs:   OutPutHudSendCount
    -------------------------------------------------------------------------
NEAR_CONST
  Relative segment, address: 000F34EA - 000F34F1 (0x8 bytes), align: 1
  Segment part 17.            Intra module refs:   OutPutHudValue
    -------------------------------------------------------------------------
NEAR_CONST
  Relative segment, address: 000F34F2 - 000F34F9 (0x8 bytes), align: 1
  Segment part 18.            Intra module refs:   OutPutTwliBriValue
    -------------------------------------------------------------------------
NEAR_CONST
  Relative segment, address: 000F34FA - 000F3501 (0x8 bytes), align: 1
  Segment part 19.            Intra module refs:   OutPutSolarValue
    -------------------------------------------------------------------------
NEAR_CONST
  Relative segment, address: 000F3502 - 000F3509 (0x8 bytes), align: 1
  Segment part 20.            Intra module refs:   OutPutSolarValue
    -------------------------------------------------------------------------
NEAR_CONST
  Relative segment, address: 000F350A - 000F3511 (0x8 bytes), align: 1
  Segment part 21.            Intra module refs:   OutPutBrightnessValue
    -------------------------------------------------------------------------
NEAR_CONST
  Relative segment, address: 000F3512 - 000F3519 (0x8 bytes), align: 1
  Segment part 22.            Intra module refs:   CheckErrors
    -------------------------------------------------------------------------
NEAR_CONST
  Relative segment, address: 000F351A - 000F3521 (0x8 bytes), align: 1
  Segment part 23.            Intra module refs:   CheckErrors
    -------------------------------------------------------------------------
NEAR_CONST
  Relative segment, address: 000F3522 - 000F3529 (0x8 bytes), align: 1
  Segment part 24.            Intra module refs:   ApplLinInit
    -------------------------------------------------------------------------
NEAR_CONST
  Relative segment, address: 000F352A - 000F3531 (0x8 bytes), align: 1
  Segment part 25.            Intra module refs:   ApplLinSlavePreCopy
    -------------------------------------------------------------------------
NEAR_CONST
  Relative segment, address: 000F3532 - 000F3539 (0x8 bytes), align: 1
  Segment part 26.            Intra module refs:   GetFiveTableValue_500ms
    -------------------------------------------------------------------------
NEAR_CONST
  Relative segment, address: 000F353A - 000F3541 (0x8 bytes), align: 1
  Segment part 27.            Intra module refs:   AdjustOutHudValue
    -------------------------------------------------------------------------
NEAR_CONST
  Relative segment, address: 000F3542 - 000F3549 (0x8 bytes), align: 1
  Segment part 28.            Intra module refs:   GetUpdateTimeForLightStatus
    -------------------------------------------------------------------------
NEAR_CONST
  Relative segment, address: 000F354A - 000F3551 (0x8 bytes), align: 1
  Segment part 29.            Intra module refs:   CalcHUDMean_1000ms
    -------------------------------------------------------------------------
NEAR_CONST
  Relative segment, address: 000F3552 - 000F3559 (0x8 bytes), align: 1
  Segment part 30.            Intra module refs:   orderHUDValue
    -------------------------------------------------------------------------
NEAR_CONST
  Relative segment, address: 000F355A - 000F3561 (0x8 bytes), align: 1
  Segment part 31.            Intra module refs:   GetFiveTableValue_50ms
    -------------------------------------------------------------------------
NEAR_CONST
  Relative segment, address: 000F3562 - 000F3569 (0x8 bytes), align: 1
  Segment part 32.            Intra module refs:   CRC8SAEJ1850
    -------------------------------------------------------------------------
NEAR_CONST
  Relative segment, address: 000F356A - 000F3571 (0x8 bytes), align: 1
  Segment part 33.            Intra module refs:   GetOutdBriStsCrcj1850
    -------------------------------------------------------------------------
NEAR_CONST
  Relative segment, address: 000F3572 - 000F3579 (0x8 bytes), align: 1
  Segment part 34.            Intra module refs:   GetHudCrcj1850
    -------------------------------------------------------------------------
NEAR_CONST
  Relative segment, address: 000F357A - 000F3581 (0x8 bytes), align: 1
  Segment part 35.            Intra module refs:   GetLightTransmission
    -------------------------------------------------------------------------
NEAR_CONST
  Relative segment, address: 000F3582 - 000F3589 (0x8 bytes), align: 1
  Segment part 36.            Intra module refs:   Get_BCMVehType
    -------------------------------------------------------------------------
NEAR_CONST
  Relative segment, address: 000F358A - 000F3591 (0x8 bytes), align: 1
  Segment part 37.            Intra module refs:   Set_BCMLightOffset
    -------------------------------------------------------------------------
NEAR_CONST
  Relative segment, address: 000F3592 - 000F3599 (0x8 bytes), align: 1
  Segment part 38.            Intra module refs:   SendRLSSerNo
    -------------------------------------------------------------------------
NEAR_CONST
  Relative segment, address: 000F359A - 000F35A1 (0x8 bytes), align: 1
  Segment part 39.            Intra module refs:   SendRLSMPartNo
    -------------------------------------------------------------------------
NEAR_CONST
  Relative segment, address: 000F35A2 - 000F35A9 (0x8 bytes), align: 1
  Segment part 40.            Intra module refs:   SendRLSMPartNo10
    -------------------------------------------------------------------------
NEAR_CONST
  Relative segment, address: 000F35AA - 000F35B1 (0x8 bytes), align: 1
  Segment part 41.            Intra module refs:   WipeWinterModeCheck
    -------------------------------------------------------------------------
NEAR_CONST
  Relative segment, address: 000F35B2 - 000F35B9 (0x8 bytes), align: 1
  Segment part 42.            Intra module refs:   IsByteOddParity
    -------------------------------------------------------------------------
NEAR_CONST
  Relative segment, address: 000F35BA - 000F35D5 (0x1c bytes), align: 1
  Segment part 43.            Intra module refs:   VCAST_DRIVER_9
    -------------------------------------------------------------------------
NEAR_CONST
  Relative segment, address: 000F35D6 - 000F35E7 (0x12 bytes), align: 1
  Segment part 44.            Intra module refs:   VCAST_TI_9_1
                                                   VCAST_TI_9_10
                                                   VCAST_TI_9_12
                                                   VCAST_TI_9_14
                                                   VCAST_TI_9_16
                                                   VCAST_TI_9_18
                                                   VCAST_TI_9_20
                                                   VCAST_TI_9_23
                                                   VCAST_TI_9_24
                                                   VCAST_TI_9_26
                                                   VCAST_TI_9_28
                                                   VCAST_TI_9_30
                                                   VCAST_TI_9_33
                                                   VCAST_TI_9_35
                                                   VCAST_TI_9_4
                                                   VCAST_TI_9_40
                                                   VCAST_TI_9_42
                                                   VCAST_TI_9_44
                                                   VCAST_TI_9_7
    -------------------------------------------------------------------------
NEAR_CONST
  Relative segment, address: 000F35E8 - 000F35ED (0x6 bytes), align: 1
  Segment part 45.            Intra module refs:   VCAST_TI_9_22
                                                   VCAST_TI_9_39
                                                   VCAST_TI_9_53
                                                   VCAST_TI_9_6
    -------------------------------------------------------------------------
NEAR_CONST
  Relative segment, address: 000F35EE - 000F35EF (0x2 bytes), align: 1
  Segment part 46.            Intra module refs:   VCAST_TI_9_111
                                                   VCAST_TI_9_22
                                                   VCAST_TI_9_31
                                                   VCAST_TI_9_37
                                                   VCAST_TI_9_39
                                                   VCAST_TI_9_41
                                                   VCAST_TI_9_43
                                                   VCAST_TI_9_45
                                                   VCAST_TI_9_49
                                                   VCAST_TI_9_50
                                                   VCAST_TI_9_54
                                                   VCAST_TI_9_6
                                                   VCAST_TI_9_63
                                                   VCAST_TI_9_64
                                                   VCAST_TI_9_65
                                                   VCAST_TI_9_68
                                                   VCAST_TI_9_72
                                                   VCAST_TI_9_74
                                                   VCAST_TI_9_77
                                                   VCAST_TI_9_79
                                                   VCAST_TI_9_8
                                                   VCAST_TI_9_80
                                                   VCAST_TI_9_81
                                                   VCAST_TI_RANGE_DATA_9
    -------------------------------------------------------------------------
NEAR_CONST
  Relative segment, address: 000F35F0 - 000F35F3 (0x4 bytes), align: 1
  Segment part 47.            Intra module refs:   VCAST_TI_9_111
                                                   VCAST_TI_9_31
                                                   VCAST_TI_9_37
                                                   VCAST_TI_9_41
                                                   VCAST_TI_9_43
                                                   VCAST_TI_9_45
                                                   VCAST_TI_9_49
                                                   VCAST_TI_9_50
                                                   VCAST_TI_9_54
                                                   VCAST_TI_9_63
                                                   VCAST_TI_9_64
                                                   VCAST_TI_9_65
                                                   VCAST_TI_9_68
                                                   VCAST_TI_9_72
                                                   VCAST_TI_9_74
                                                   VCAST_TI_9_77
                                                   VCAST_TI_9_79
                                                   VCAST_TI_9_8
                                                   VCAST_TI_9_80
                                                   VCAST_TI_9_81
                                                   VCAST_TI_RANGE_DATA_9
    -------------------------------------------------------------------------
NEAR_CONST
  Relative segment, address: 000F35F4 - 000F360B (0x18 bytes), align: 1
  Segment part 48.            Intra module refs:   VCAST_TI_9_111
                                                   VCAST_TI_9_31
                                                   VCAST_TI_9_37
                                                   VCAST_TI_9_41
                                                   VCAST_TI_9_43
                                                   VCAST_TI_9_45
                                                   VCAST_TI_9_49
                                                   VCAST_TI_9_50
                                                   VCAST_TI_9_54
                                                   VCAST_TI_9_63
                                                   VCAST_TI_9_64
                                                   VCAST_TI_9_65
                                                   VCAST_TI_9_68
                                                   VCAST_TI_9_72
                                                   VCAST_TI_9_74
                                                   VCAST_TI_9_77
                                                   VCAST_TI_9_79
                                                   VCAST_TI_9_8
                                                   VCAST_TI_9_80
                                                   VCAST_TI_9_81
    -------------------------------------------------------------------------
NEAR_CONST
  Relative segment, address: 000F360C - 000F360F (0x4 bytes), align: 1
  Segment part 49.            Intra module refs:   VCAST_TI_9_53
    -------------------------------------------------------------------------
NEAR_CONST
  Relative segment, address: 000F3610 - 000F361B (0xc bytes), align: 1
  Segment part 50.            Intra module refs:   VCAST_TI_RANGE_DATA_9
    -------------------------------------------------------------------------
NEAR_CONST
  Relative segment, address: 000F361C - 000F3623 (0x8 bytes), align: 1
  Segment part 51.            Intra module refs:   VCAST_TI_RANGE_DATA_9
    -------------------------------------------------------------------------
NEAR_CONST
  Relative segment, address: 000F3624 - 000F362B (0x8 bytes), align: 1
  Segment part 52.            Intra module refs:   VCAST_TI_RANGE_DATA_9
    -------------------------------------------------------------------------
NEAR_CONST
  Relative segment, address: 000F362C - 000F3637 (0xc bytes), align: 1
  Segment part 53.            Intra module refs:   VCAST_TI_RANGE_DATA_9
    -------------------------------------------------------------------------
NEAR_CONST
  Relative segment, address: 000F3638 - 000F363F (0x8 bytes), align: 1
  Segment part 54.            Intra module refs:   VCAST_TI_RANGE_DATA_9
    -------------------------------------------------------------------------
NEAR_CONST
  Relative segment, address: 000F3640 - 000F3647 (0x8 bytes), align: 1
  Segment part 55.            Intra module refs:   VCAST_TI_RANGE_DATA_9
    -------------------------------------------------------------------------
NEAR_CONST
  Relative segment, address: 000F3648 - 000F364F (0x8 bytes), align: 1
  Segment part 56.            Intra module refs:   VCAST_TI_RANGE_DATA_9
    -------------------------------------------------------------------------
NEAR_CONST
  Relative segment, address: 000F3650 - 000F3657 (0x8 bytes), align: 1
  Segment part 57.            Intra module refs:   VCAST_TI_RANGE_DATA_9
    -------------------------------------------------------------------------
NEAR_CONST
  Relative segment, address: 000F3658 - 000F365F (0x8 bytes), align: 1
  Segment part 58.            Intra module refs:   VCAST_TI_RANGE_DATA_9
    -------------------------------------------------------------------------
NEAR_CONST
  Relative segment, address: 000F3660 - 000F3667 (0x8 bytes), align: 1
  Segment part 59.            Intra module refs:   VCAST_TI_RANGE_DATA_9
    -------------------------------------------------------------------------
NEAR_CONST
  Relative segment, address: 000F3668 - 000F366F (0x8 bytes), align: 1
  Segment part 60.            Intra module refs:   VCAST_TI_RANGE_DATA_9
    -------------------------------------------------------------------------
NEAR_CONST
  Relative segment, address: 000F3670 - 000F3677 (0x8 bytes), align: 1
  Segment part 61.            Intra module refs:   VCAST_TI_RANGE_DATA_9
    -------------------------------------------------------------------------
NEAR_CONST
  Relative segment, address: 000F3678 - 000F367F (0x8 bytes), align: 1
  Segment part 62.            Intra module refs:   VCAST_TI_RANGE_DATA_9
    -------------------------------------------------------------------------
NEAR_CONST
  Relative segment, address: 000F3680 - 000F3687 (0x8 bytes), align: 1
  Segment part 63.            Intra module refs:   VCAST_TI_RANGE_DATA_9
    -------------------------------------------------------------------------
NEAR_CONST
  Relative segment, address: 000F3688 - 000F368F (0x8 bytes), align: 1
  Segment part 64.            Intra module refs:   VCAST_TI_RANGE_DATA_9
    -------------------------------------------------------------------------
NEAR_CONST
  Relative segment, address: 000F3690 - 000F3697 (0x8 bytes), align: 1
  Segment part 65.            Intra module refs:   VCAST_TI_RANGE_DATA_9
    -------------------------------------------------------------------------
NEAR_CONST
  Relative segment, address: 000F3698 - 000F369F (0x8 bytes), align: 1
  Segment part 66.            Intra module refs:   VCAST_TI_RANGE_DATA_9
    -------------------------------------------------------------------------
NEAR_CONST
  Relative segment, address: 000F36A0 - 000F36A7 (0x8 bytes), align: 1
  Segment part 67.            Intra module refs:   VCAST_TI_RANGE_DATA_9
    -------------------------------------------------------------------------
NEAR_CONST
  Relative segment, address: 000F36A8 - 000F36AF (0x8 bytes), align: 1
  Segment part 68.            Intra module refs:   VCAST_TI_RANGE_DATA_9
    -------------------------------------------------------------------------
NEAR_CONST
  Relative segment, address: 000F36B0 - 000F36B7 (0x8 bytes), align: 1
  Segment part 69.            Intra module refs:   VCAST_TI_RANGE_DATA_9
    -------------------------------------------------------------------------
NEAR_CONST
  Relative segment, address: 000F36B8 - 000F36BF (0x8 bytes), align: 1
  Segment part 70.            Intra module refs:   VCAST_TI_RANGE_DATA_9
    -------------------------------------------------------------------------
NEAR_CONST
  Relative segment, address: 000F36C0 - 000F36C7 (0x8 bytes), align: 1
  Segment part 71.            Intra module refs:   VCAST_TI_RANGE_DATA_9
    -------------------------------------------------------------------------
NEAR_CONST
  Relative segment, address: 000F36C8 - 000F36CF (0x8 bytes), align: 1
  Segment part 72.            Intra module refs:   VCAST_TI_RANGE_DATA_9
    -------------------------------------------------------------------------
NEAR_CONST
  Relative segment, address: 000F36D0 - 000F36D7 (0x8 bytes), align: 1
  Segment part 73.            Intra module refs:   VCAST_TI_RANGE_DATA_9
    -------------------------------------------------------------------------
NEAR_CONST
  Relative segment, address: 000F36D8 - 000F36DF (0x8 bytes), align: 1
  Segment part 74.            Intra module refs:   VCAST_TI_RANGE_DATA_9
    -------------------------------------------------------------------------
NEAR_CONST
  Relative segment, address: 000F36E0 - 000F36E7 (0x8 bytes), align: 1
  Segment part 75.            Intra module refs:   VCAST_TI_RANGE_DATA_9
    -------------------------------------------------------------------------
NEAR_CONST
  Relative segment, address: 000F36E8 - 000F36EF (0x8 bytes), align: 1
  Segment part 76.            Intra module refs:   VCAST_TI_RANGE_DATA_9
    -------------------------------------------------------------------------
NEAR_CONST
  Relative segment, address: 000F36F0 - 000F36F7 (0x8 bytes), align: 1
  Segment part 77.            Intra module refs:   VCAST_TI_RANGE_DATA_9
    -------------------------------------------------------------------------
NEAR_CONST
  Relative segment, address: 000F36F8 - 000F36FF (0x8 bytes), align: 1
  Segment part 78.            Intra module refs:   VCAST_TI_RANGE_DATA_9
    -------------------------------------------------------------------------
NEAR_CONST
  Relative segment, address: 000F3700 - 000F3707 (0x8 bytes), align: 1
  Segment part 79.            Intra module refs:   VCAST_TI_RANGE_DATA_9
    -------------------------------------------------------------------------
NEAR_CONST
  Relative segment, address: 000F3708 - 000F370F (0x8 bytes), align: 1
  Segment part 80.            Intra module refs:   VCAST_TI_RANGE_DATA_9
    -------------------------------------------------------------------------
NEAR_CONST
  Relative segment, address: 000F3710 - 000F3717 (0x8 bytes), align: 1
  Segment part 81.            Intra module refs:   VCAST_TI_RANGE_DATA_9
    -------------------------------------------------------------------------
NEAR_CONST
  Relative segment, address: 000F3718 - 000F371F (0x8 bytes), align: 1
  Segment part 82.            Intra module refs:   VCAST_TI_RANGE_DATA_9
    -------------------------------------------------------------------------
NEAR_CONST
  Relative segment, address: 000F3720 - 000F3727 (0x8 bytes), align: 1
  Segment part 83.            Intra module refs:   VCAST_TI_RANGE_DATA_9
    -------------------------------------------------------------------------
NEAR_CONST
  Relative segment, address: 000F3728 - 000F372F (0x8 bytes), align: 1
  Segment part 84.            Intra module refs:   VCAST_TI_RANGE_DATA_9
    -------------------------------------------------------------------------
NEAR_CONST
  Relative segment, address: 000F3730 - 000F3737 (0x8 bytes), align: 1
  Segment part 85.            Intra module refs:   VCAST_TI_RANGE_DATA_9
    -------------------------------------------------------------------------
NEAR_CONST
  Relative segment, address: 000F3738 - 000F373F (0x8 bytes), align: 1
  Segment part 86.            Intra module refs:   VCAST_TI_RANGE_DATA_9
    -------------------------------------------------------------------------
NEAR_CONST
  Relative segment, address: 000F3740 - 000F3747 (0x8 bytes), align: 1
  Segment part 87.            Intra module refs:   VCAST_TI_RANGE_DATA_9
    -------------------------------------------------------------------------
NEAR_CONST
  Relative segment, address: 000F3748 - 000F374F (0x8 bytes), align: 1
  Segment part 88.            Intra module refs:   VCAST_TI_RANGE_DATA_9
    -------------------------------------------------------------------------
NEAR_CONST
  Relative segment, address: 000F3750 - 000F3757 (0x8 bytes), align: 1
  Segment part 89.            Intra module refs:   VCAST_TI_RANGE_DATA_9
    -------------------------------------------------------------------------
NEAR_CONST
  Relative segment, address: 000F3758 - 000F375F (0x8 bytes), align: 1
  Segment part 90.            Intra module refs:   VCAST_TI_RANGE_DATA_9
    -------------------------------------------------------------------------
NEAR_CONST
  Relative segment, address: 000F3760 - 000F3767 (0x8 bytes), align: 1
  Segment part 91.            Intra module refs:   VCAST_TI_RANGE_DATA_9
    -------------------------------------------------------------------------
NEAR_CONST_ID
  Relative segment, address: 0000343A - 00003441 (0x8 bytes), align: 1
  Segment part 398.           Intra module refs:   cab_PotistageMapping_mg
    -------------------------------------------------------------------------
NEAR_CONST_ID
  Relative segment, address: 00003442 - 00003449 (0x8 bytes), align: 1
  Segment part 399.           Intra module refs:   GetLsWWS::cab_WiperMotorRunntime_mg
    -------------------------------------------------------------------------
NEAR_CONST_ID
  Relative segment, address: 0000344A - 00003451 (0x8 bytes), align: 1
  Segment part 400.           Intra module refs:   ApplLinInit::LinMsgDefault_RlsmCem_SerNrLin1Fr01_CEM_LIN1
    -------------------------------------------------------------------------
NEAR_CONST_ID
  Relative segment, address: 00003452 - 00003459 (0x8 bytes), align: 1
  Segment part 401.           Intra module refs:   ApplLinInit::LinMsgDefault_RlsmCem_Lin1PartNrFr02_CEM_LIN1
    -------------------------------------------------------------------------
NEAR_CONST_ID
  Relative segment, address: 0000345A - 00003461 (0x8 bytes), align: 1
  Segment part 402.           Intra module refs:   ApplLinInit::LinMsgDefault_RlsmCem_Lin1PartNrFr01_CEM_LIN1
    -------------------------------------------------------------------------
NEAR_CONST_ID
  Relative segment, address: 00003462 - 00003469 (0x8 bytes), align: 1
  Segment part 403.           Intra module refs:   ApplLinInit::LinMsgDefault_RlsmCem_Lin1Fr03_CEM_LIN1
    -------------------------------------------------------------------------
NEAR_CONST_ID
  Relative segment, address: 0000346A - 00003471 (0x8 bytes), align: 1
  Segment part 404.           Intra module refs:   ApplLinInit::LinMsgDefault_RlsmCem_Lin1Fr02_CEM_LIN1
    -------------------------------------------------------------------------
NEAR_CONST_ID
  Relative segment, address: 00003472 - 00003479 (0x8 bytes), align: 1
  Segment part 405.           Intra module refs:   ApplLinInit::LinMsgDefault_RlsmCem_Lin1Fr01_CEM_LIN1
    -------------------------------------------------------------------------
NEAR_CONST_ID
  Relative segment, address: 0000347A - 00003481 (0x8 bytes), align: 1
  Segment part 406.           Intra module refs:   Segment part 3
    -------------------------------------------------------------------------
NEAR_CONST_ID
  Relative segment, address: 00003482 - 00003489 (0x8 bytes), align: 1
  Segment part 407.           Intra module refs:   Segment part 4
    -------------------------------------------------------------------------
NEAR_CONST_ID
  Relative segment, address: 0000348A - 00003491 (0x8 bytes), align: 1
  Segment part 408.           Intra module refs:   Segment part 5
    -------------------------------------------------------------------------
NEAR_CONST_ID
  Relative segment, address: 00003492 - 00003499 (0x8 bytes), align: 1
  Segment part 409.           Intra module refs:   Segment part 6
    -------------------------------------------------------------------------
NEAR_CONST_ID
  Relative segment, address: 0000349A - 000034A1 (0x8 bytes), align: 1
  Segment part 410.           Intra module refs:   Segment part 7
    -------------------------------------------------------------------------
NEAR_CONST_ID
  Relative segment, address: 000034A2 - 000034A9 (0x8 bytes), align: 1
  Segment part 411.           Intra module refs:   Segment part 8
    -------------------------------------------------------------------------
NEAR_CONST_ID
  Relative segment, address: 000034AA - 000034B1 (0x8 bytes), align: 1
  Segment part 412.           Intra module refs:   Segment part 9
    -------------------------------------------------------------------------
NEAR_CONST_ID
  Relative segment, address: 000034B2 - 000034B9 (0x8 bytes), align: 1
  Segment part 413.           Intra module refs:   Segment part 10
    -------------------------------------------------------------------------
NEAR_CONST_ID
  Relative segment, address: 000034BA - 000034C1 (0x8 bytes), align: 1
  Segment part 414.           Intra module refs:   Segment part 11
    -------------------------------------------------------------------------
NEAR_CONST_ID
  Relative segment, address: 000034C2 - 000034C9 (0x8 bytes), align: 1
  Segment part 415.           Intra module refs:   Segment part 12
    -------------------------------------------------------------------------
NEAR_CONST_ID
  Relative segment, address: 000034CA - 000034D1 (0x8 bytes), align: 1
  Segment part 416.           Intra module refs:   Segment part 13
    -------------------------------------------------------------------------
NEAR_CONST_ID
  Relative segment, address: 000034D2 - 000034D9 (0x8 bytes), align: 1
  Segment part 417.           Intra module refs:   Segment part 14
    -------------------------------------------------------------------------
NEAR_CONST_ID
  Relative segment, address: 000034DA - 000034E1 (0x8 bytes), align: 1
  Segment part 418.           Intra module refs:   Segment part 15
    -------------------------------------------------------------------------
NEAR_CONST_ID
  Relative segment, address: 000034E2 - 000034E9 (0x8 bytes), align: 1
  Segment part 419.           Intra module refs:   Segment part 16
    -------------------------------------------------------------------------
NEAR_CONST_ID
  Relative segment, address: 000034EA - 000034F1 (0x8 bytes), align: 1
  Segment part 420.           Intra module refs:   Segment part 17
    -------------------------------------------------------------------------
NEAR_CONST_ID
  Relative segment, address: 000034F2 - 000034F9 (0x8 bytes), align: 1
  Segment part 421.           Intra module refs:   Segment part 18
    -------------------------------------------------------------------------
NEAR_CONST_ID
  Relative segment, address: 000034FA - 00003501 (0x8 bytes), align: 1
  Segment part 422.           Intra module refs:   Segment part 19
    -------------------------------------------------------------------------
NEAR_CONST_ID
  Relative segment, address: 00003502 - 00003509 (0x8 bytes), align: 1
  Segment part 423.           Intra module refs:   Segment part 20
    -------------------------------------------------------------------------
NEAR_CONST_ID
  Relative segment, address: 0000350A - 00003511 (0x8 bytes), align: 1
  Segment part 424.           Intra module refs:   Segment part 21
    -------------------------------------------------------------------------
NEAR_CONST_ID
  Relative segment, address: 00003512 - 00003519 (0x8 bytes), align: 1
  Segment part 425.           Intra module refs:   Segment part 22
    -------------------------------------------------------------------------
NEAR_CONST_ID
  Relative segment, address: 0000351A - 00003521 (0x8 bytes), align: 1
  Segment part 426.           Intra module refs:   Segment part 23
    -------------------------------------------------------------------------
NEAR_CONST_ID
  Relative segment, address: 00003522 - 00003529 (0x8 bytes), align: 1
  Segment part 427.           Intra module refs:   Segment part 24
    -------------------------------------------------------------------------
NEAR_CONST_ID
  Relative segment, address: 0000352A - 00003531 (0x8 bytes), align: 1
  Segment part 428.           Intra module refs:   Segment part 25
    -------------------------------------------------------------------------
NEAR_CONST_ID
  Relative segment, address: 00003532 - 00003539 (0x8 bytes), align: 1
  Segment part 429.           Intra module refs:   Segment part 26
    -------------------------------------------------------------------------
NEAR_CONST_ID
  Relative segment, address: 0000353A - 00003541 (0x8 bytes), align: 1
  Segment part 430.           Intra module refs:   Segment part 27
    -------------------------------------------------------------------------
NEAR_CONST_ID
  Relative segment, address: 00003542 - 00003549 (0x8 bytes), align: 1
  Segment part 431.           Intra module refs:   Segment part 28
    -------------------------------------------------------------------------
NEAR_CONST_ID
  Relative segment, address: 0000354A - 00003551 (0x8 bytes), align: 1
  Segment part 432.           Intra module refs:   Segment part 29
    -------------------------------------------------------------------------
NEAR_CONST_ID
  Relative segment, address: 00003552 - 00003559 (0x8 bytes), align: 1
  Segment part 433.           Intra module refs:   Segment part 30
    -------------------------------------------------------------------------
NEAR_CONST_ID
  Relative segment, address: 0000355A - 00003561 (0x8 bytes), align: 1
  Segment part 434.           Intra module refs:   Segment part 31
    -------------------------------------------------------------------------
NEAR_CONST_ID
  Relative segment, address: 00003562 - 00003569 (0x8 bytes), align: 1
  Segment part 435.           Intra module refs:   Segment part 32
    -------------------------------------------------------------------------
NEAR_CONST_ID
  Relative segment, address: 0000356A - 00003571 (0x8 bytes), align: 1
  Segment part 436.           Intra module refs:   Segment part 33
    -------------------------------------------------------------------------
NEAR_CONST_ID
  Relative segment, address: 00003572 - 00003579 (0x8 bytes), align: 1
  Segment part 437.           Intra module refs:   Segment part 34
    -------------------------------------------------------------------------
NEAR_CONST_ID
  Relative segment, address: 0000357A - 00003581 (0x8 bytes), align: 1
  Segment part 438.           Intra module refs:   Segment part 35
    -------------------------------------------------------------------------
NEAR_CONST_ID
  Relative segment, address: 00003582 - 00003589 (0x8 bytes), align: 1
  Segment part 439.           Intra module refs:   Segment part 36
    -------------------------------------------------------------------------
NEAR_CONST_ID
  Relative segment, address: 0000358A - 00003591 (0x8 bytes), align: 1
  Segment part 440.           Intra module refs:   Segment part 37
    -------------------------------------------------------------------------
NEAR_CONST_ID
  Relative segment, address: 00003592 - 00003599 (0x8 bytes), align: 1
  Segment part 441.           Intra module refs:   Segment part 38
    -------------------------------------------------------------------------
NEAR_CONST_ID
  Relative segment, address: 0000359A - 000035A1 (0x8 bytes), align: 1
  Segment part 442.           Intra module refs:   Segment part 39
    -------------------------------------------------------------------------
NEAR_CONST_ID
  Relative segment, address: 000035A2 - 000035A9 (0x8 bytes), align: 1
  Segment part 443.           Intra module refs:   Segment part 40
    -------------------------------------------------------------------------
NEAR_CONST_ID
  Relative segment, address: 000035AA - 000035B1 (0x8 bytes), align: 1
  Segment part 444.           Intra module refs:   Segment part 41
    -------------------------------------------------------------------------
NEAR_CONST_ID
  Relative segment, address: 000035B2 - 000035B9 (0x8 bytes), align: 1
  Segment part 445.           Intra module refs:   Segment part 42
    -------------------------------------------------------------------------
NEAR_CONST_ID
  Relative segment, address: 000035BA - 000035D5 (0x1c bytes), align: 1
  Segment part 446.           Intra module refs:   Segment part 43
    -------------------------------------------------------------------------
NEAR_CONST_ID
  Relative segment, address: 000035D6 - 000035E7 (0x12 bytes), align: 1
  Segment part 447.           Intra module refs:   Segment part 44
    -------------------------------------------------------------------------
NEAR_CONST_ID
  Relative segment, address: 000035E8 - 000035ED (0x6 bytes), align: 1
  Segment part 448.           Intra module refs:   Segment part 45
    -------------------------------------------------------------------------
NEAR_CONST_ID
  Relative segment, address: 000035EE - 000035EF (0x2 bytes), align: 1
  Segment part 449.           Intra module refs:   Segment part 46
    -------------------------------------------------------------------------
NEAR_CONST_ID
  Relative segment, address: 000035F0 - 000035F3 (0x4 bytes), align: 1
  Segment part 450.           Intra module refs:   Segment part 47
    -------------------------------------------------------------------------
NEAR_CONST_ID
  Relative segment, address: 000035F4 - 0000360B (0x18 bytes), align: 1
  Segment part 451.           Intra module refs:   Segment part 48
    -------------------------------------------------------------------------
NEAR_CONST_ID
  Relative segment, address: 0000360C - 0000360F (0x4 bytes), align: 1
  Segment part 452.           Intra module refs:   Segment part 49
    -------------------------------------------------------------------------
NEAR_CONST_ID
  Relative segment, address: 00003610 - 0000361B (0xc bytes), align: 1
  Segment part 453.           Intra module refs:   Segment part 50
    -------------------------------------------------------------------------
NEAR_CONST_ID
  Relative segment, address: 0000361C - 00003623 (0x8 bytes), align: 1
  Segment part 454.           Intra module refs:   Segment part 51
    -------------------------------------------------------------------------
NEAR_CONST_ID
  Relative segment, address: 00003624 - 0000362B (0x8 bytes), align: 1
  Segment part 455.           Intra module refs:   Segment part 52
    -------------------------------------------------------------------------
NEAR_CONST_ID
  Relative segment, address: 0000362C - 00003637 (0xc bytes), align: 1
  Segment part 456.           Intra module refs:   Segment part 53
    -------------------------------------------------------------------------
NEAR_CONST_ID
  Relative segment, address: 00003638 - 0000363F (0x8 bytes), align: 1
  Segment part 457.           Intra module refs:   Segment part 54
    -------------------------------------------------------------------------
NEAR_CONST_ID
  Relative segment, address: 00003640 - 00003647 (0x8 bytes), align: 1
  Segment part 458.           Intra module refs:   Segment part 55
    -------------------------------------------------------------------------
NEAR_CONST_ID
  Relative segment, address: 00003648 - 0000364F (0x8 bytes), align: 1
  Segment part 459.           Intra module refs:   Segment part 56
    -------------------------------------------------------------------------
NEAR_CONST_ID
  Relative segment, address: 00003650 - 00003657 (0x8 bytes), align: 1
  Segment part 460.           Intra module refs:   Segment part 57
    -------------------------------------------------------------------------
NEAR_CONST_ID
  Relative segment, address: 00003658 - 0000365F (0x8 bytes), align: 1
  Segment part 461.           Intra module refs:   Segment part 58
    -------------------------------------------------------------------------
NEAR_CONST_ID
  Relative segment, address: 00003660 - 00003667 (0x8 bytes), align: 1
  Segment part 462.           Intra module refs:   Segment part 59
    -------------------------------------------------------------------------
NEAR_CONST_ID
  Relative segment, address: 00003668 - 0000366F (0x8 bytes), align: 1
  Segment part 463.           Intra module refs:   Segment part 60
    -------------------------------------------------------------------------
NEAR_CONST_ID
  Relative segment, address: 00003670 - 00003677 (0x8 bytes), align: 1
  Segment part 464.           Intra module refs:   Segment part 61
    -------------------------------------------------------------------------
NEAR_CONST_ID
  Relative segment, address: 00003678 - 0000367F (0x8 bytes), align: 1
  Segment part 465.           Intra module refs:   Segment part 62
    -------------------------------------------------------------------------
NEAR_CONST_ID
  Relative segment, address: 00003680 - 00003687 (0x8 bytes), align: 1
  Segment part 466.           Intra module refs:   Segment part 63
    -------------------------------------------------------------------------
NEAR_CONST_ID
  Relative segment, address: 00003688 - 0000368F (0x8 bytes), align: 1
  Segment part 467.           Intra module refs:   Segment part 64
    -------------------------------------------------------------------------
NEAR_CONST_ID
  Relative segment, address: 00003690 - 00003697 (0x8 bytes), align: 1
  Segment part 468.           Intra module refs:   Segment part 65
    -------------------------------------------------------------------------
NEAR_CONST_ID
  Relative segment, address: 00003698 - 0000369F (0x8 bytes), align: 1
  Segment part 469.           Intra module refs:   Segment part 66
    -------------------------------------------------------------------------
NEAR_CONST_ID
  Relative segment, address: 000036A0 - 000036A7 (0x8 bytes), align: 1
  Segment part 470.           Intra module refs:   Segment part 67
    -------------------------------------------------------------------------
NEAR_CONST_ID
  Relative segment, address: 000036A8 - 000036AF (0x8 bytes), align: 1
  Segment part 471.           Intra module refs:   Segment part 68
    -------------------------------------------------------------------------
NEAR_CONST_ID
  Relative segment, address: 000036B0 - 000036B7 (0x8 bytes), align: 1
  Segment part 472.           Intra module refs:   Segment part 69
    -------------------------------------------------------------------------
NEAR_CONST_ID
  Relative segment, address: 000036B8 - 000036BF (0x8 bytes), align: 1
  Segment part 473.           Intra module refs:   Segment part 70
    -------------------------------------------------------------------------
NEAR_CONST_ID
  Relative segment, address: 000036C0 - 000036C7 (0x8 bytes), align: 1
  Segment part 474.           Intra module refs:   Segment part 71
    -------------------------------------------------------------------------
NEAR_CONST_ID
  Relative segment, address: 000036C8 - 000036CF (0x8 bytes), align: 1
  Segment part 475.           Intra module refs:   Segment part 72
    -------------------------------------------------------------------------
NEAR_CONST_ID
  Relative segment, address: 000036D0 - 000036D7 (0x8 bytes), align: 1
  Segment part 476.           Intra module refs:   Segment part 73
    -------------------------------------------------------------------------
NEAR_CONST_ID
  Relative segment, address: 000036D8 - 000036DF (0x8 bytes), align: 1
  Segment part 477.           Intra module refs:   Segment part 74
    -------------------------------------------------------------------------
NEAR_CONST_ID
  Relative segment, address: 000036E0 - 000036E7 (0x8 bytes), align: 1
  Segment part 478.           Intra module refs:   Segment part 75
    -------------------------------------------------------------------------
NEAR_CONST_ID
  Relative segment, address: 000036E8 - 000036EF (0x8 bytes), align: 1
  Segment part 479.           Intra module refs:   Segment part 76
    -------------------------------------------------------------------------
NEAR_CONST_ID
  Relative segment, address: 000036F0 - 000036F7 (0x8 bytes), align: 1
  Segment part 480.           Intra module refs:   Segment part 77
    -------------------------------------------------------------------------
NEAR_CONST_ID
  Relative segment, address: 000036F8 - 000036FF (0x8 bytes), align: 1
  Segment part 481.           Intra module refs:   Segment part 78
    -------------------------------------------------------------------------
NEAR_CONST_ID
  Relative segment, address: 00003700 - 00003707 (0x8 bytes), align: 1
  Segment part 482.           Intra module refs:   Segment part 79
    -------------------------------------------------------------------------
NEAR_CONST_ID
  Relative segment, address: 00003708 - 0000370F (0x8 bytes), align: 1
  Segment part 483.           Intra module refs:   Segment part 80
    -------------------------------------------------------------------------
NEAR_CONST_ID
  Relative segment, address: 00003710 - 00003717 (0x8 bytes), align: 1
  Segment part 484.           Intra module refs:   Segment part 81
    -------------------------------------------------------------------------
NEAR_CONST_ID
  Relative segment, address: 00003718 - 0000371F (0x8 bytes), align: 1
  Segment part 485.           Intra module refs:   Segment part 82
    -------------------------------------------------------------------------
NEAR_CONST_ID
  Relative segment, address: 00003720 - 00003727 (0x8 bytes), align: 1
  Segment part 486.           Intra module refs:   Segment part 83
    -------------------------------------------------------------------------
NEAR_CONST_ID
  Relative segment, address: 00003728 - 0000372F (0x8 bytes), align: 1
  Segment part 487.           Intra module refs:   Segment part 84
    -------------------------------------------------------------------------
NEAR_CONST_ID
  Relative segment, address: 00003730 - 00003737 (0x8 bytes), align: 1
  Segment part 488.           Intra module refs:   Segment part 85
    -------------------------------------------------------------------------
NEAR_CONST_ID
  Relative segment, address: 00003738 - 0000373F (0x8 bytes), align: 1
  Segment part 489.           Intra module refs:   Segment part 86
    -------------------------------------------------------------------------
NEAR_CONST_ID
  Relative segment, address: 00003740 - 00003747 (0x8 bytes), align: 1
  Segment part 490.           Intra module refs:   Segment part 87
    -------------------------------------------------------------------------
NEAR_CONST_ID
  Relative segment, address: 00003748 - 0000374F (0x8 bytes), align: 1
  Segment part 491.           Intra module refs:   Segment part 88
    -------------------------------------------------------------------------
NEAR_CONST_ID
  Relative segment, address: 00003750 - 00003757 (0x8 bytes), align: 1
  Segment part 492.           Intra module refs:   Segment part 89
    -------------------------------------------------------------------------
NEAR_CONST_ID
  Relative segment, address: 00003758 - 0000375F (0x8 bytes), align: 1
  Segment part 493.           Intra module refs:   Segment part 90
    -------------------------------------------------------------------------
NEAR_CONST_ID
  Relative segment, address: 00003760 - 00003767 (0x8 bytes), align: 1
  Segment part 494.           Intra module refs:   Segment part 91

    *************************************************************************

  FILE NAME : C:\Program Files (x86)\IAR Systems\Embedded Workbench 7.0\rl78\LIB\dlrl78fn2n.r87
  LIBRARY MODULE, NAME : ?__dbg_break

  SEGMENTS IN THE MODULE
  ======================
<XCODE> 2 (was XCODE)
  Relative segment, address: 0000F3E1 - 0000F3E3 (0x3 bytes), align: 0
  Segment part 2.
           ENTRY                   ADDRESS         REF BY
           =====                   =======         ======
           __DebugBreak            0000F3E1        __dwrite (?__dwrite)
                                                   __exit (?__exit)

    -------------------------------------------------------------------------
  LIBRARY MODULE, NAME : ?__dwrite

  SEGMENTS IN THE MODULE
  ======================
<XCODE> 2 (was XCODE)
  Relative segment, address: 0000F322 - 0000F33B (0x1a bytes), align: 0
  Segment part 2.
           ENTRY                   ADDRESS         REF BY
           =====                   =======         ======
           __dwrite                0000F322        __write (?__write)
               calls direct
               CSTACK = 00000000 ( 00000008 )

    -------------------------------------------------------------------------
  LIBRARY MODULE, NAME : ?__exit

  SEGMENTS IN THE MODULE
  ======================
<XCODE> 2 (was XCODE)
  Relative segment, address: 0000F37B - 0000F38B (0x11 bytes), align: 0
  Segment part 2.
           ENTRY                   ADDRESS         REF BY
           =====                   =======         ======
           __exit                  0000F37B        __iar_exit_end (?_exit)
               calls direct

    -------------------------------------------------------------------------
  LIBRARY MODULE, NAME : ?__write

  SEGMENTS IN THE MODULE
  ======================
<XCODE> 2 (was XCODE)
  Relative segment, address: 0000F39C - 0000F3AB (0x10 bytes), align: 0
  Segment part 2.
           ENTRY                   ADDRESS         REF BY
           =====                   =======         ======
           __write                 0000F39C        putchar (?putchar)
               calls direct

    -------------------------------------------------------------------------
  LIBRARY MODULE, NAME : ?atol

  SEGMENTS IN THE MODULE
  ======================
<XCODE> 2 (was XCODE)
  Relative segment, address: 0000F3C6 - 0000F3D0 (0xb bytes), align: 0
  Segment part 2.
           ENTRY                   ADDRESS         REF BY
           =====                   =======         ======
           atol                    0000F3C6        vCAST_OPEN_HARNOPTS_FILE (B0000002)
                                                   vCAST_OPEN_TESTORDR_FILE (B0000002)
                                                   vCAST_READ_COMMAND_DATA_FOR_USER_GLOBALS (B0000002)
                                                   vCAST_READ_NEXT_ORDER (B0000002)
                                                   vCAST_RUN_DATA_IF (B0000001)
                                                   vCAST_STR_TO_LONG_DOUBLE (B0000002)
                                                   vcast_B1_switch (B1_switch)
                                                   vcast_get_hc_id (B0000002)
                                                   vcast_get_parameter_id (B0000002)
                                                   vcast_get_subprogram_id (B0000002)
                                                   vcast_get_unit_id (B0000002)
               calls direct
               CSTACK = 00000000 ( 00000002 )

    -------------------------------------------------------------------------
  LIBRARY MODULE, NAME : ?_exit

  SEGMENTS IN THE MODULE
  ======================
__aseg
  Relative segment, address: 00000000, align: 0
  Segment part 1. ROOT 
    -------------------------------------------------------------------------
RCODE
  Relative segment, address: 000000D8 - 000000D8 (0x1 bytes), align: 0
  Segment part 2.
           ENTRY                   ADDRESS         REF BY
           =====                   =======         ======
           _exit                   000000D8        exit (?exit)
    -------------------------------------------------------------------------
RCODE
  Relative segment, address: 000000D9 - 000000DD (0x5 bytes), align: 0
  Segment part 5.             Intra module refs:   _exit
           ENTRY                   ADDRESS         REF BY
           =====                   =======         ======
           __iar_exit_end          000000DE 

    -------------------------------------------------------------------------
  LIBRARY MODULE, NAME : ?CSTARTUP

  SEGMENTS IN THE MODULE
  ======================
__aseg
  Relative segment, address: 00000000, align: 0
  Segment part 1. ROOT 
    -------------------------------------------------------------------------
CSTACK
  Relative segment, address: 000FBBF0, align: 1
  Segment part 2. ROOT 
    -------------------------------------------------------------------------
INTVEC
  Common segment, address: 00000000 - 00000001 (0x2 bytes), align: 1
  Segment part 3. ROOT 
    -------------------------------------------------------------------------
RCODE
  Relative segment, address: 000000DE - 0000010E (0x31 bytes), align: 0
  Segment part 4. ROOT        Intra module refs:   Segment part 3
           ENTRY                   ADDRESS         REF BY
           =====                   =======         ======
           ?C_STARTUP              000000DE 
           @cstart                 000000DE 
           __program_start         000000DE        Absolute parts (?ABS_ENTRY_MOD)

    -------------------------------------------------------------------------
  LIBRARY MODULE, NAME : ?__INIT_HUGE_Z

  SEGMENTS IN THE MODULE
  ======================
HUGE_Z
  Relative segment, address: 000FB7EF, align: 0
  Segment part 1. ROOT 

    -------------------------------------------------------------------------
  LIBRARY MODULE, NAME : ?__INIT_FAR_Z

  SEGMENTS IN THE MODULE
  ======================
FAR_Z
  Relative segment, address: 000FB7EF, align: 0
  Segment part 1. ROOT 

    -------------------------------------------------------------------------
  LIBRARY MODULE, NAME : ?__INIT_NEAR_Z

  SEGMENTS IN THE MODULE
  ======================
NEAR_Z
  Relative segment, address: 000FB7EF, align: 0
  Segment part 1. ROOT 
    -------------------------------------------------------------------------
RCODE
  Relative segment, address: 0000010F - 00000121 (0x13 bytes), align: 0
  Segment part 2.
           ENTRY                   ADDRESS         REF BY
           =====                   =======         ======
           __INIT_NEAR_Z           0000010F        AMB_Average_In_50ms (I0000009)
                                                   AMB_Average_In_50ms_Old (I0000009)
                                                   CemCem_Lin1Fr01_CEM_LIN1 (I0000009)
                                                   CemCem_Lin1Fr02_CEM_LIN1 (I0000009)
                                                   CemCem_Lin1Fr03_CEM_LIN1 (I0000009)
                                                   CemCem_Lin1Fr04_CEM_LIN1 (I0000009)
                                                   CemCem_Lin1Fr05_CEM_LIN1 (I0000009)
                                                   CemCem_Lin1Fr06_CEM_LIN1 (I0000009)
                                                   EEPROM_Struct_AD (I0000009)
                                                   EEPROM_Struct_PD (I0000009)
                                                   FW_Average_In_50ms (I0000009)
                                                   FW_Average_In_50ms_Old (I0000009)
                                                   GetFiveTableValue_500ms::rb_k_cycleIn500ms (I0000009)
                                                   GetFiveTableValue_500ms::rb_k_cycleIn50ms (I0000009)
                                                   GetFiveTableValue_50ms::rb_k_cycleIn50ms (I0000009)
                                                   GetLeWWS::rb_AfterResetCounter_l (I0000009)
                                                   GetLeWWS::rb_IntervalOnOndelay_mg (I0000009)
                                                   GetLeWWS::rw_IgnitionOffDelay_mg (I0000009)
                                                   GetLsWWS::rb_parkpositioncounter_s (I0000009)
                                                   Get_BCMVehType::rb_VehTypeValueDebounce (I0000009)
                                                   HUDEverageValue (I0000009)
                                                   Humidity_Function::rw_Temperature_Scheibe_g (I0000009)
                                                   OutPutHudSendCount::rb_HUD_Cnt_s (I0000009)
                                                   P_10_1_1 (I0000009)
                                                   P_9_16_1 (I0000009)
                                                   P_9_17_1 (I0000009)
                                                   P_9_18_1 (I0000009)
                                                   P_9_19_1 (I0000009)
                                                   P_9_22_1 (I0000009)
                                                   P_9_23_1 (I0000009)
                                                   P_9_23_2 (I0000009)
                                                   P_9_24_1 (I0000009)
                                                   P_9_24_2 (I0000009)
                                                   P_9_25_1 (I0000009)
                                                   P_9_26_1 (I0000009)
                                                   P_9_27_1 (I0000009)
                                                   P_9_27_2 (I0000009)
                                                   P_9_28_1 (I0000009)
                                                   P_9_29_1 (I0000009)
                                                   P_9_34_1 (I0000009)
                                                   RSStatus (I0000009)
                                                   RW_Amb_Fw_Result_End (I0000009)
                                                   RW_Update_Time_Count (I0000009)
                                                   R_10_3 (I0000009)
                                                   R_10_4 (I0000009)
                                                   R_10_5 (I0000009)
                                                   R_10_6 (I0000009)
                                                   R_10_7 (I0000009)
                                                   R_10_8 (I0000009)
                                                   R_10_9 (I0000009)
                                                   R_9_19 (I0000009)
                                                   R_9_20 (I0000009)
                                                   R_9_21 (I0000009)
                                                   R_9_24 (I0000009)
                                                   R_9_25 (I0000009)
                                                   R_9_26 (I0000009)
                                                   R_9_34 (I0000009)
                                                   RainFunction::rb_OutOffParkCounter_mg (I0000009)
                                                   RainFunction::rb_TunnelWipeTimeOut_mg (I0000009)
                                                   RainFunction::rb_tunnelWipeActive_g (I0000009)
                                                   RlsmCem_Lin1Fr01_CEM_LIN1 (I0000009)
                                                   RlsmCem_Lin1Fr02_CEM_LIN1 (I0000009)
                                                   RlsmCem_Lin1Fr03_CEM_LIN1 (I0000009)
                                                   RlsmCem_Lin1PartNrFr01_CEM_LIN1 (I0000009)
                                                   RlsmCem_Lin1PartNrFr02_CEM_LIN1 (I0000009)
                                                   RlsmCem_SerNrLin1Fr01_CEM_LIN1 (I0000009)
                                                   Segment part 2 (?xgetmemchunk)
                                                   Set_BCMLightOffset::rb_lightValueDebounce (I0000009)
                                                   TemperatureDetect::rb_overTemperatureTimer_s (I0000009)
                                                   VCAST_DEFAULT_DO_COMBINATION (S0000003)
                                                   VCAST_DEFAULT_FLOAT_FIELD_WIDTH (B0000007)
                                                   VCAST_DEFAULT_FLOAT_PRECISION (B0000007)
                                                   VCAST_DEFAULT_FULL_STRINGS (S0000003)
                                                   VCAST_DEFAULT_HEX_NOTATION (S0000003)
                                                   VCAST_EXP_FILE (S0000003)
                                                   VCAST_FLOAT_FIELD_WIDTH (B0000007)
                                                   VCAST_FLOAT_FORMAT (B0000007)
                                                   VCAST_FLOAT_PRECISION (B0000007)
                                                   VCAST_GLOBALS_DISPLAY (S0000003)
                                                   VCAST_allocated_data_list (B0000007)
                                                   VCAST_convert::output (B0000001)
                                                   VCAST_env (S0000003)
                                                   VCAST_globalZero (B0000007)
                                                   VCAST_index_size (B0000001)
                                                   VECTORCAST_BUFFER (B0000008)
                                                   VECTORCAST_FLT1 (B0000008)
                                                   VECTORCAST_INT1 (B0000008)
                                                   VECTORCAST_INT2 (B0000008)
                                                   VECTORCAST_INT3 (B0000008)
                                                   VECTORCAST_STR1 (B0000008)
                                                   VoltageDetect::rb_underVoltageTimer_s (I0000009)
                                                   __iar_Errno (?errno)
                                                   __near_Aldata (?xxmemxmalloc)
                                                   currentIndexIntoDataArray (B0000007)
                                                   fileIdCounter (B0000007)
                                                   inputDataArrayStart (B0000007)
                                                   rab_EEPROM_Bytes_toWrite_g (I0000009)
                                                   ras_ASIC_MUX_MeasAD_g (I0000009)
                                                   rb_ASIC_ALSx_ShortDetected_Error_g (I0000009)
                                                   rb_ASIC_ALSx_ShortDetected_cnt_g (I0000009)
                                                   rb_ASIC_SPI_ErrorCodeCnt_g (I0000009)
                                                   rb_ASIC_initTimeout_g (I0000009)
                                                   rb_AnyErrorCounterDebounce_mg (I0000009)
                                                   rb_ClockFreq_Error_cnt_g (I0000009)
                                                   rb_Err_State_Light_Sens_mg (I0000009)
                                                   rb_Humidity_g (I0000009)
                                                   rb_Humidity_raw_g (I0000009)
                                                   rb_I2C_EEPROM_bytesToWrite_g (I0000009)
                                                   rb_IgnitionOndelay_mg (I0000009)
                                                   rb_InternalTemperature_g (I0000009)
                                                   rb_KL15_mg (I0000009)
                                                   rb_LIN_BIT_ERROR_COUNTER_g (I0000009)
                                                   rb_LIN_CHECKSUMERROR_COUNTER_g (I0000009)
                                                   rb_LIN_FRAMINGERROR_COUNTER_g (I0000009)
                                                   rb_LIN_NORESPONSE_COUNTER_g (I0000009)
                                                   rb_LIN_OVERTFRAMEMAX_COUNTER_g (I0000009)
                                                   rb_LIN_OVERTHEADERMAX_COUNTER_g (I0000009)
                                                   rb_LIN_SensitivityShift_g (I0000009)
                                                   rb_LSPotiStage_g (I0000009)
                                                   rb_LastLINErrorCode_g (I0000009)
                                                   rb_LightS_Error1_g (I0000009)
                                                   rb_LimitMemomryNoWiperReaction_g (I0000009)
                                                   rb_PotiStageFromBox_g (I0000009)
                                                   rb_RS_LS_Error1_g (I0000009)
                                                   rb_RS_LS_Error2_g (I0000009)
                                                   rb_RainS_Error1_g (I0000009)
                                                   rb_Release_IntervalMarker_Update_g (I0000009)
                                                   rb_StaticNoValidAD_cnt_g (I0000009)
                                                   rb_VIref_ErrCnt_g (I0000009)
                                                   rb_Verglasun_ClosedDebounce_mg (I0000009)
                                                   rb_Verglasun_offenDebounce_mg (I0000009)
                                                   rb_WDG_BusTaskCounter_g (I0000009)
                                                   rb_WakeupCounter_mg (I0000009)
                                                   rb_WiperSpeedAlt_g (I0000009)
                                                   rb_WiperSpeed_g (I0000009)
                                                   rb_hud_data_update (I0000009)
                                                   rb_intervaltime_rainSensorOff_g (I0000009)
                                                   rb_speed_in_kmh_g (I0000009)
                                                   rb_storeAMB_ValueEvery50ms (I0000009)
                                                   rb_storeFW_ValueEvery50ms (I0000009)
                                                   rb_storeHUDValueEvery500ms (I0000009)
                                                   rbi_HumTempComError_g (I0000009)
                                                   rbi_WiperStarted_g (I0000009)
                                                   rub_IntermDelayTime (I0000009)
                                                   rub_RSIntermDelayInit (I0000009)
                                                   rw_AfterRSWipeCounterAlt_mg (I0000009)
                                                   rw_AfterRSWipeCounter_mg (I0000009)
                                                   rw_AfterWWSWipeCounter_mg (I0000009)
                                                   rw_CommandCloseWindowTimout_mg (I0000009)
                                                   rw_DewPoint_g (I0000009)
                                                   rw_EEPROM_Address_to_Write_g (I0000009)
                                                   rw_NoCommunicationCounter_g (I0000009)
                                                   rw_SPINoCommCounter_g (I0000009)
                                                   rw_Solar_light16bit_1_g (I0000009)
                                                   rw_Solar_light16bit_2_g (I0000009)
                                                   rw_StandbyTimeOutCnt_g (I0000009)
                                                   rw_Temperature_raw_g (I0000009)
                                                   rw_WipeCommandTimOut_mg (I0000009)
                                                   rw_rain_intensitiy_g (I0000009)
                                                   totalStringToPrint (B0000007)
                                                   uF_ASIC_ControlFlags_g (I0000009)
                                                   uF_ASIC_Ctrl_Error_Flags_g (I0000009)
                                                   uF_ASIC_Error_Flags1_g (I0000009)
                                                   uF_ASIC_Error_Flags_g (I0000009)
                                                   uF_Butterfly_Flags_g (I0000009)
                                                   uF_Check_lightsensor_g (I0000009)
                                                   uF_Communication_mg (I0000009)
                                                   uF_Diagnose_pre_Flag (I0000009)
                                                   uF_E2ConfigErrorFlags_g (I0000009)
                                                   uF_GainAdjustFlags_g (I0000009)
                                                   uF_LIN_DiagReq2_mg (I0000009)
                                                   uF_LightInternalStatus_g (I0000009)
                                                   uF_Main_Flags_g (I0000009)
                                                   uF_SCIFlags_mg (I0000009)
                                                   uF_StalkInPos_Flags_g (I0000009)
                                                   uF_StatusRainsensor2_mg (I0000009)
                                                   uF_StatusRainsensor_mg (I0000009)
                                                   uF_VoltageStatus_g (I0000009)
                                                   uF_modi_lightsens_g (I0000009)
                                                   uF_uC_Error_g (I0000009)
                                                   uLinConfirmationFlags (I0000009)
                                                   uLinIndicationFlags (I0000009)
                                                   vCAST_COMMAND (B0000001)
                                                   vCAST_COMMAND_IS_MIN_MAX (S0000003)
                                                   vCAST_CURRENT_ITERATION (S0000003)
                                                   vCAST_CURRENT_SLOT (S0000003)
                                                   vCAST_DO_COMBINATION_TESTING (B0000007)
                                                   vCAST_DO_DATA_IF (S0000003)
                                                   vCAST_E0_FILE (S0000003)
                                                   vCAST_EVENT_FILE (S0000003)
                                                   vCAST_EVENT_FILE_OPEN (S0000003)
                                                   vCAST_FILE (B0000001)
                                                   vCAST_FULL_STRINGS (B0000007)
                                                   vCAST_GLOBALS_TOUCHED (S0000003)
                                                   vCAST_HAS_RANGE (S0000003)
                                                   vCAST_HEX_NOTATION (B0000007)
                                                   vCAST_HIST_FILE (S0000003)
                                                   vCAST_HIST_FILE_OPEN (S0000003)
                                                   vCAST_INDEX (B0000001)
                                                   vCAST_INST_FILE (S0000003)
                                                   vCAST_INST_FILE_OPEN (S0000003)
                                                   vCAST_ITERATION_COUNTERS (S0000003)
                                                   vCAST_ORDER_FILE (S0000003)
                                                   vCAST_ORDER_OBJECT (S0000003)
                                                   vCAST_OUTPUT_FILE (S0000003)
                                                   vCAST_PARAMETER (B0000001)
                                                   vCAST_PARAMETER_KEY (B0000001)
                                                   vCAST_PARAM_LENGTH (B0000001)
                                                   vCAST_RANGE_COUNTER (S0000003)
                                                   vCAST_SIZE (B0000001)
                                                   vCAST_SKIP_ITER (S0000003)
                                                   vCAST_TESTCASE_OPTIONS (S0000003)
                                                   vCAST_TEST_NAME (S0000003)
                                                   vCAST_TOOL_ERROR (S0000003)
                                                   vCAST_VALUE (B0000001)
                                                   vCAST_VALUE_INT (B0000001)
                                                   vCAST_VALUE_NUL (B0000001)
                                                   vCAST_VALUE_UNSIGNED (B0000001)
                                                   vcastCommonOutputBuffer (B0000001)
                                                   vcast_already_exited (S0000003)
                                                   vcast_exit_flag (S0000003)
                                                   vcast_file_offsets (B0000007)
                                                   vcast_file_table (B0000007)
                                                   vcast_find_val (B0000002)
                                                   vcast_global_size (B0000001)
                                                   vcast_insert_val (B0000002)
                                                   vcast_is_in_driver (S0000003)
                                                   vcast_is_in_union (S0000003)
                                                   vcast_max_mcdc_statements_exceeded (B0000002)
                                                   vcast_unconvert_char_hex::output (B0000001)
                                                   vcast_unconvert_char_oct::output (B0000001)
                                                   vcast_unit_fn_call_bytes_9 (B0000002)
                                                   vcast_unit_mcdc_bytes_9 (B0000002)
                                                   vcast_unit_optimized_mcdc_bytes_9_0 (B0000002)
                                                   vcast_unit_optimized_mcdc_bytes_9_1 (B0000002)
                                                   vcast_unit_optimized_mcdc_bytes_9_2 (B0000002)
                                                   vcast_unit_optimized_mcdc_bytes_9_3 (B0000002)
                                                   vcast_unit_optimized_mcdc_bytes_9_4 (B0000002)
                                                   vcast_unit_optimized_mcdc_bytes_9_5 (B0000002)
                                                   vcast_unit_stmt_bytes_9 (B0000002)
                                                   vcast_user_file (S0000003)

    -------------------------------------------------------------------------
  LIBRARY MODULE, NAME : ?__INIT_WRKSEG

  SEGMENTS IN THE MODULE
  ======================
WRKSEG
  Relative segment, address: 000FFE20, align: 0
  Segment part 1. ROOT 
    -------------------------------------------------------------------------
RCODE
  Relative segment, address: 00000122 - 0000012C (0xb bytes), align: 0
  Segment part 2.
           ENTRY                   ADDRESS         REF BY
           =====                   =======         ======
           __INIT_WRKSEG           00000122        ?F_DIV (?FLOAT_DIV)
                                                   ?F_MUL (?FLOAT_MUL)
                                                   Segment part 2 (?FLOAT_2_SIGNED_LONG)
                                                   Segment part 2 (?FLOAT_ADD_SUB)
                                                   __WRKSEG_0 (?WRKSEG_DEFINE_L09)

    -------------------------------------------------------------------------
  LIBRARY MODULE, NAME : ?__INIT_NEAR_I

  SEGMENTS IN THE MODULE
  ======================
NEAR_I
  Relative segment, address: 000FAF76, align: 0
  Segment part 1. ROOT 
    -------------------------------------------------------------------------
NEAR_ID
  Relative segment, address: 00000C34, align: 0
  Segment part 2. ROOT 
    -------------------------------------------------------------------------
RCODE
  Relative segment, address: 0000012D - 00000146 (0x1a bytes), align: 0
  Segment part 3.
           ENTRY                   ADDRESS         REF BY
           =====                   =======         ======
           __INIT_NEAR_I           0000012D        NumFileTableEntries (B0000007)
                                                   OutPutBrightnessValue::rb_InitLightValCnt_l (I0000009)
                                                   Segment part 2 (?xprintfsmall)
                                                   Segment part 2 (?xstoul)
                                                   Segment part 4 (?xstoul)
                                                   VCAST_DEFAULT_FLOAT_FORMAT (B0000007)
                                                   VCAST_GLOBAL_FIRST_EVENT (S0000003)
                                                   rb_OutsideTemp_mg (I0000009)
                                                   rb_WipeWorkStatus_mg (I0000009)
                                                   vCAST_DATA_FIELD (B0000001)
                                                   vCAST_ENV_HIST_LIMIT (S0000003)
                                                   vCAST_HIST_INDEX (S0000003)
                                                   vCAST_HIST_LIMIT (S0000003)
                                                   vCAST_NUM_RANGE_ITERATIONS (S0000003)
                                                   vCAST_PARTITIONS (S0000003)
                                                   vCAST_SUBPROGRAM (S0000003)
                                                   vCAST_UNIT (S0000003)
                                                   vCAST_can_print_constructor (B0000001)
                                                   vcastLengthBytes (B0000007)

    -------------------------------------------------------------------------
  LIBRARY MODULE, NAME : ?__MAIN_CALL

  SEGMENTS IN THE MODULE
  ======================
RCODE
  Relative segment, address: 00000147 - 0000014E (0x8 bytes), align: 0
  Segment part 1.
           ENTRY                   ADDRESS         REF BY
           =====                   =======         ======
           @cend                   0000014F 
           __MAIN_CALL             00000147        Segment part 4 (?CSTARTUP)
           __program_end           0000014F 

    -------------------------------------------------------------------------
  LIBRARY MODULE, NAME : ?__low_level_init_stub

  SEGMENTS IN THE MODULE
  ======================
<XCODE> 2 (was XCODE)
  Relative segment, address: 0000F3DD - 0000F3E0 (0x4 bytes), align: 0
  Segment part 1.
           ENTRY                   ADDRESS         REF BY
           =====                   =======         ======
           __low_level_init        0000F3DD        Segment part 4 (?CSTARTUP)

    -------------------------------------------------------------------------
  LIBRARY MODULE, NAME : ?errno

  SEGMENTS IN THE MODULE
  ======================
NEAR_Z
  Relative segment, address: 000FB65E - 000FB65F (0x2 bytes), align: 1
  Segment part 2.
           ENTRY                   ADDRESS         REF BY
           =====                   =======         ======
           __iar_Errno             000FB65E        __iar_Stoulx (?xstoul)

    -------------------------------------------------------------------------
  LIBRARY MODULE, NAME : ?exit

  SEGMENTS IN THE MODULE
  ======================
<XCODE> 2 (was XCODE)
  Relative segment, address: 0000F3D9 - 0000F3DC (0x4 bytes), align: 0
  Segment part 2.
           ENTRY                   ADDRESS         REF BY
           =====                   =======         ======
           exit                    0000F3D9        Segment part 1 (?__MAIN_CALL)
                                                   VCAST_driver_termination (S0000003)
               calls direct

    -------------------------------------------------------------------------
  LIBRARY MODULE, NAME : ?FLOAT_ADD_SUB

  SEGMENTS IN THE MODULE
  ======================
__aseg
  Relative segment, address: 00000000, align: 0
  Segment part 1. ROOT 
    -------------------------------------------------------------------------
RCODE
  Relative segment, address: 0000014F - 000003AA (0x25c bytes), align: 0
  Segment part 2.
           ENTRY                   ADDRESS         REF BY
           =====                   =======         ======
           ?F_ADD                  00000190        VCAST_TI_8_3 (B0000008)
                                                   VCAST_TI_BITFIELD (B0000001)
                                                   VCAST_itod (B0000002)
                                                   vCAST_STR_TO_LONG_DOUBLE (B0000002)
           ?F_SUB                  000002AF 

    -------------------------------------------------------------------------
  LIBRARY MODULE, NAME : ?FCMP_LT

  SEGMENTS IN THE MODULE
  ======================
__aseg
  Relative segment, address: 00000000, align: 0
  Segment part 1. ROOT 
    -------------------------------------------------------------------------
RCODE
  Relative segment, address: 000003AB - 000003F7 (0x4d bytes), align: 0
  Segment part 2.
           ENTRY                   ADDRESS         REF BY
           =====                   =======         ======
           ?FCMP_LT                000003AB        vCAST_STR_TO_LONG_DOUBLE (B0000002)

    -------------------------------------------------------------------------
  LIBRARY MODULE, NAME : ?FLOAT_DIV

  SEGMENTS IN THE MODULE
  ======================
__aseg
  Relative segment, address: 00000000, align: 0
  Segment part 1. ROOT 
    -------------------------------------------------------------------------
RCODE
  Relative segment, address: 000003F8 - 0000056F (0x178 bytes), align: 0
  Segment part 2.
           ENTRY                   ADDRESS         REF BY
           =====                   =======         ======
           ?F_DIV                  00000461        VCAST_GET_NEGATIVE_INFINITY (B0000007)
                                                   VCAST_GET_POSITIVE_INFINITY (B0000007)
                                                   VCAST_GET_QUIET_NAN (B0000007)
                                                   vCAST_STR_TO_LONG_DOUBLE (B0000002)

    -------------------------------------------------------------------------
  LIBRARY MODULE, NAME : ?FLOAT_2_SIGNED_LONG

  SEGMENTS IN THE MODULE
  ======================
__aseg
  Relative segment, address: 00000000, align: 0
  Segment part 1. ROOT 
    -------------------------------------------------------------------------
RCODE
  Relative segment, address: 00000570 - 000005DA (0x6b bytes), align: 0
  Segment part 2.
           ENTRY                   ADDRESS         REF BY
           =====                   =======         ======
           ?F_F2SL                 00000570        VCAST_TI_9_53 (I0000009)
                                                   VCAST_TI_BITFIELD (B0000001)
                                                   vcast_B1_switch (B1_switch)
           ?F_F2UL                 00000570 

    -------------------------------------------------------------------------
  LIBRARY MODULE, NAME : ?SIGNED_LONG_2_FLOAT

  SEGMENTS IN THE MODULE
  ======================
__aseg
  Relative segment, address: 00000000, align: 0
  Segment part 1. ROOT 
    -------------------------------------------------------------------------
RCODE
  Relative segment, address: 000005DB - 000005EE (0x14 bytes), align: 0
  Segment part 2.
           ENTRY                   ADDRESS         REF BY
           =====                   =======         ======
           ?F_SL2F                 000005DB        VCAST_itod (B0000002)
                                                   vCAST_SET_TESTCASE_CONFIGURATION_OPTIONS (B0000002)
    -------------------------------------------------------------------------
RCODE
  Relative segment, address: 000005EF - 00000643 (0x55 bytes), align: 0
  Segment part 3.             Intra module refs:   ?F_SL2F
           ENTRY                   ADDRESS         REF BY
           =====                   =======         ======
           ?F_UL2F                 000005EF 

    -------------------------------------------------------------------------
  LIBRARY MODULE, NAME : ?SUBN_ARG

  SEGMENTS IN THE MODULE
  ======================
__aseg
  Relative segment, address: 00000000, align: 0
  Segment part 1. ROOT 
    -------------------------------------------------------------------------
RCODE
  Relative segment, address: 00000644 - 0000064E (0xb bytes), align: 0
  Segment part 2.
           ENTRY                   ADDRESS         REF BY
           =====                   =======         ======
           __iar_norm_arg          00000644        ?F_DIV (?FLOAT_DIV)
                                                   ?F_MUL (?FLOAT_MUL)
                                                   Segment part 2 (?FLOAT_ADD_SUB)

    -------------------------------------------------------------------------
  LIBRARY MODULE, NAME : ?FLOAT_MUL

  SEGMENTS IN THE MODULE
  ======================
__aseg
  Relative segment, address: 00000000, align: 0
  Segment part 1. ROOT 
    -------------------------------------------------------------------------
RCODE
  Relative segment, address: 0000064F - 000007A3 (0x155 bytes), align: 0
  Segment part 2.
           ENTRY                   ADDRESS         REF BY
           =====                   =======         ======
           ?F_MUL                  000006B6        VCAST_itod (B0000002)
                                                   vCAST_STR_TO_LONG_DOUBLE (B0000002)
                                                   vCAST_power (B0000002)

    -------------------------------------------------------------------------
  LIBRARY MODULE, NAME : ?CLRL78_V1_0_L00

Absolute parts
           ENTRY                   ADDRESS         REF BY
           =====                   =======         ======
           ?CLRL78_V1_0_L00        FFFFFFFF        AdjustOutHudValue (I0000009)
                                                   AdvanceCurrentLine (B0000007)
                                                   ApplLinInit (I0000009)
                                                   ApplLinSlavePreCopy (I0000009)
                                                   CRC8SAEJ1850 (I0000009)
                                                   CalcHUDMean_1000ms (I0000009)
                                                   CheckErrors (I0000009)
                                                   Check_StartupActiveErrors (I0000009)
                                                   CopyRLSData (I0000009)
                                                   CopyRLSDataAsic (I0000009)
                                                   EndOfInput (B0000007)
                                                   GetCurrentLine (B0000007)
                                                   GetFile (B0000007)
                                                   GetFileFromName (B0000007)
                                                   GetFileName (B0000007)
                                                   GetFileOffsets (B0000007)
                                                   GetFiveTableValue_500ms (I0000009)
                                                   GetFiveTableValue_50ms (I0000009)
                                                   GetHudCrcj1850 (I0000009)
                                                   GetIdNumber (B0000007)
                                                   GetLeWWS (I0000009)
                                                   GetLightTransmission (I0000009)
                                                   GetLsWWS (I0000009)
                                                   GetOutdBriStsCrcj1850 (I0000009)
                                                   GetUpdateTimeForLightStatus (I0000009)
                                                   Get_BCMVehType (I0000009)
                                                   Humidity_Function (I0000009)
                                                   IsByteOddParity (I0000009)
                                                   LightFunction (I0000009)
                                                   LoadInt (?xprintfsmall)
                                                   NOTvcastIsSBFObject (B0000002)
                                                   OutPutBrightnessValue (I0000009)
                                                   OutPutHudSendCount (I0000009)
                                                   OutPutHudValue (I0000009)
                                                   OutPutSolarValue (I0000009)
                                                   OutPutTwliBriValue (I0000009)
                                                   RainFunction (I0000009)
                                                   ResetCurrentLine (B0000007)
                                                   Segment part 5 (?xprintfsmall)
                                                   Segment part 6 (?xprintfsmall)
                                                   Segment part 7 (?xprintfsmall)
                                                   SendRLSMPartNo (I0000009)
                                                   SendRLSMPartNo10 (I0000009)
                                                   SendRLSSerNo (I0000009)
                                                   SetFileOffset (B0000007)
                                                   Set_BCMLightOffset (I0000009)
                                                   StandByMode (I0000009)
                                                   StartsNewFile (B0000007)
                                                   StripReturn (B0000007)
                                                   TemperatureDetect (I0000009)
                                                   VCAST_Add_Allocated_Data (B0000007)
                                                   VCAST_DRIVER_9 (I0000009)
                                                   VCAST_DUMP_COVERAGE_DATA (B0000002)
                                                   VCAST_DUMP_COVERAGE_DATA_ID (B0000002)
                                                   VCAST_DUMP_FN_CALL_COVERAGE_DATA_ID (B0000002)
                                                   VCAST_DUMP_MCDC_COVERAGE_DATA_ID (B0000002)
                                                   VCAST_DUMP_MCDC_COVERAGE_ID (B0000002)
                                                   VCAST_DUMP_OPTIMIZED_MCDC_COVERAGE_DATA_ID (B0000002)
                                                   VCAST_DUMP_STATEMENT_COVERAGE_DATA_ID (B0000002)
                                                   VCAST_FIND_INDEX (B0000001)
                                                   VCAST_GET_NEGATIVE_INFINITY (B0000007)
                                                   VCAST_GET_POSITIVE_INFINITY (B0000007)
                                                   VCAST_GET_QUIET_NAN (B0000007)
                                                   VCAST_MCDC_CONDITION_INSTRUMENTATION_POINT_BUFFERED (B0000002)
                                                   VCAST_OPTIMIZED_MCDC_CONDITION_INSTRUMENTATION_POINT_BUFFERED (B0000002)
                                                   VCAST_OPTIMIZED_MCDC_CONDITION_INSTRUMENTATION_POINT_BUFFERED_1 (B0000002)
                                                   VCAST_READ_TESTORDR_LINE (B0000002)
                                                   VCAST_RUN_DATA_IF_8 (B0000008)
                                                   VCAST_RUN_DATA_IF_9 (I0000009)
                                                   VCAST_SAVE_MCDC_SUBCONDITION (B0000002)
                                                   VCAST_SLOT_SEPARATOR (B0000002)
                                                   VCAST_TI_8_1 (B0000008)
                                                   VCAST_TI_8_2 (B0000008)
                                                   VCAST_TI_8_3 (B0000008)
                                                   VCAST_TI_8_4 (B0000008)
                                                   VCAST_TI_8_5 (B0000008)
                                                   VCAST_TI_9_1 (I0000009)
                                                   VCAST_TI_9_10 (I0000009)
                                                   VCAST_TI_9_11 (I0000009)
                                                   VCAST_TI_9_111 (I0000009)
                                                   VCAST_TI_9_12 (I0000009)
                                                   VCAST_TI_9_13 (I0000009)
                                                   VCAST_TI_9_14 (I0000009)
                                                   VCAST_TI_9_15 (I0000009)
                                                   VCAST_TI_9_16 (I0000009)
                                                   VCAST_TI_9_17 (I0000009)
                                                   VCAST_TI_9_18 (I0000009)
                                                   VCAST_TI_9_19 (I0000009)
                                                   VCAST_TI_9_2 (I0000009)
                                                   VCAST_TI_9_20 (I0000009)
                                                   VCAST_TI_9_21 (I0000009)
                                                   VCAST_TI_9_22 (I0000009)
                                                   VCAST_TI_9_23 (I0000009)
                                                   VCAST_TI_9_24 (I0000009)
                                                   VCAST_TI_9_25 (I0000009)
                                                   VCAST_TI_9_26 (I0000009)
                                                   VCAST_TI_9_27 (I0000009)
                                                   VCAST_TI_9_28 (I0000009)
                                                   VCAST_TI_9_29 (I0000009)
                                                   VCAST_TI_9_30 (I0000009)
                                                   VCAST_TI_9_31 (I0000009)
                                                   VCAST_TI_9_32 (I0000009)
                                                   VCAST_TI_9_33 (I0000009)
                                                   VCAST_TI_9_34 (I0000009)
                                                   VCAST_TI_9_35 (I0000009)
                                                   VCAST_TI_9_36 (I0000009)
                                                   VCAST_TI_9_37 (I0000009)
                                                   VCAST_TI_9_38 (I0000009)
                                                   VCAST_TI_9_39 (I0000009)
                                                   VCAST_TI_9_4 (I0000009)
                                                   VCAST_TI_9_40 (I0000009)
                                                   VCAST_TI_9_41 (I0000009)
                                                   VCAST_TI_9_42 (I0000009)
                                                   VCAST_TI_9_43 (I0000009)
                                                   VCAST_TI_9_44 (I0000009)
                                                   VCAST_TI_9_45 (I0000009)
                                                   VCAST_TI_9_49 (I0000009)
                                                   VCAST_TI_9_5 (I0000009)
                                                   VCAST_TI_9_50 (I0000009)
                                                   VCAST_TI_9_53 (I0000009)
                                                   VCAST_TI_9_54 (I0000009)
                                                   VCAST_TI_9_55 (I0000009)
                                                   VCAST_TI_9_57 (I0000009)
                                                   VCAST_TI_9_59 (I0000009)
                                                   VCAST_TI_9_6 (I0000009)
                                                   VCAST_TI_9_63 (I0000009)
                                                   VCAST_TI_9_64 (I0000009)
                                                   VCAST_TI_9_65 (I0000009)
                                                   VCAST_TI_9_68 (I0000009)
                                                   VCAST_TI_9_7 (I0000009)
                                                   VCAST_TI_9_70 (I0000009)
                                                   VCAST_TI_9_72 (I0000009)
                                                   VCAST_TI_9_74 (I0000009)
                                                   VCAST_TI_9_77 (I0000009)
                                                   VCAST_TI_9_79 (I0000009)
                                                   VCAST_TI_9_8 (I0000009)
                                                   VCAST_TI_9_80 (I0000009)
                                                   VCAST_TI_9_81 (I0000009)
                                                   VCAST_TI_9_9 (I0000009)
                                                   VCAST_TI_BITFIELD (B0000001)
                                                   VCAST_TI_RANGE_DATA_8 (B0000008)
                                                   VCAST_TI_RANGE_DATA_9 (I0000009)
                                                   VCAST_TI_STRING (B0000001)
                                                   VCAST_USER_CODE_UNIT_8 (B0000008)
                                                   VCAST_USER_CODE_UNIT_9 (I0000009)
                                                   VCAST_WRITE_FN_CALL_ID (B0000002)
                                                   VCAST_WRITE_MCDC_ID (B0000002)
                                                   VCAST_WRITE_OPTIMIZED_MCDC_ID (B0000002)
                                                   VCAST_WRITE_STATEMENT_ID (B0000002)
                                                   VCAST_WRITE_TO_INST_FILE (B0000002)
                                                   VCAST_convert (B0000001)
                                                   VCAST_driver_termination (S0000003)
                                                   VCAST_itod (B0000002)
                                                   VCAST_malloc (B0000002)
                                                   VCAST_memcpy (B0000002)
                                                   VCAST_strncpy (B0000002)
                                                   VoltageDetect (I0000009)
                                                   WipeWinterModeCheck (I0000009)
                                                   _LitobSmall (?xprintfsmall)
                                                   _PrintfSmall (?xprintfsmall)
                                                   _Prout (?xprout)
                                                   _PutcharSmall (?xprintfsmall)
                                                   _PutcharsSmall (?xprintfsmall)
                                                   _SProut (?xsprout)
                                                   __DebugBreak (?__dbg_break)
                                                   __dwrite (?__dwrite)
                                                   __exit (?__exit)
                                                   __iar_Memchr (?memchr)
                                                   __iar_Stoul (?xstoul)
                                                   __iar_Stoulx (?xstoul)
                                                   __iar_Strchr (?strchr)
                                                   __near_GetMemChunk (?xgetmemchunk)
                                                   __near_findmem (?xxmemxmalloc)
                                                   __near_free (?xxmemxfree)
                                                   __near_malloc (?xxmemxmalloc)
                                                   __write (?__write)
                                                   atol (?atol)
                                                   exit (?exit)
                                                   free (B0000007)
                                                   get_rb_LEDx_LStop_error_cnt_g (I0000009)
                                                   get_rb_LightSignalErrorCnt_g (I0000009)
                                                   get_rb_LightVetoCounter_g (I0000009)
                                                   get_rb_VDD_LightSignalErrorCnt_g (I0000009)
                                                   get_rl_HUD_light32bit_g (I0000009)
                                                   get_rw_Amb_light16bit_g (I0000009)
                                                   get_rw_IR_light16bit_g (I0000009)
                                                   main (S0000003)
                                                   malloc (B0000002)
                                                   memset (?memset)
                                                   orderHUDValue (I0000009)
                                                   pad (?xprintfsmall)
                                                   printf (?printf)
                                                   putchar (?putchar)
                                                   readLengthAndStringFromInputDataArray (B0000007)
                                                   sci_init (I0000009)
                                                   sprintf (?sprintf)
                                                   strcat (?strcat)
                                                   strlen (?strlen)
                                                   strncmp (?strncmp)
                                                   strncpy (?strncpy)
                                                   strtoul (?strtoul)
                                                   vCAST_BEGIN_STUB_PROC_9 (I0000009)
                                                   vCAST_CLOSE_EVENT_FILE (B0000002)
                                                   vCAST_CLOSE_HIST_FILE (B0000002)
                                                   vCAST_CLOSE_HIST_FILE_FOR_EVENT (B0000002)
                                                   vCAST_CLOSE_INST_FILE (B0000002)
                                                   vCAST_COMMON_STUB_PROC_9 (I0000009)
                                                   vCAST_CREATE_EVENT_FILE (B0000002)
                                                   vCAST_CREATE_HIST_FILE (B0000002)
                                                   vCAST_CREATE_INST_FILE (B0000002)
                                                   vCAST_EGLOBALS_USER_CODE_8 (B0000008)
                                                   vCAST_EGLOBALS_USER_CODE_9 (I0000009)
                                                   vCAST_END (S0000003)
                                                   vCAST_EXECUTE_RANGE_COMMANDS (B0000002)
                                                   vCAST_EXPECTED_USER_CODE_8 (B0000008)
                                                   vCAST_EXPECTED_USER_CODE_9 (I0000009)
                                                   vCAST_EXTRACT_DATA_FROM_COMMAND_LINE (B0000002)
                                                   vCAST_FREE_RANGE_VALUES (B0000002)
                                                   vCAST_GET_ITERATION_COUNTER_VALUE (B0000002)
                                                   vCAST_GLOBAL_BEGINNING_OF_STUB_PROCESSING (B0000004)
                                                   vCAST_GLOBAL_STUB_PROCESSING (B0000004)
                                                   vCAST_INCREMENT_ITERATION_COUNTER (B0000002)
                                                   vCAST_INITIALIZE_PARAMETERS (B0000004)
                                                   vCAST_INITIALIZE_RANGE_VALUES (B0000002)
                                                   vCAST_ITERATION_COUNTER_RESET (B0000002)
                                                   vCAST_ONE_SHOT_INIT (B0000004)
                                                   vCAST_ONE_SHOT_TERM (B0000004)
                                                   vCAST_OPEN_E0_FILE (B0000002)
                                                   vCAST_OPEN_HARNOPTS_FILE (B0000002)
                                                   vCAST_OPEN_TESTORDR_FILE (B0000002)
                                                   vCAST_ORDER (B0000002)
                                                   vCAST_READ_COMMAND_DATA (B0000002)
                                                   vCAST_READ_COMMAND_DATA_FOR_ONE_PARAM (B0000002)
                                                   vCAST_READ_COMMAND_DATA_FOR_USER_GLOBALS (B0000002)
                                                   vCAST_READ_NEXT_ORDER (B0000002)
                                                   vCAST_RESET_HARNOPTS_FILE (B0000002)
                                                   vCAST_RESET_ITERATION_COUNTERS (B0000002)
                                                   vCAST_RESET_LIST_VALUES (B0000002)
                                                   vCAST_RESET_RANGE_VALUES (B0000002)
                                                   vCAST_RE_OPEN_HIST_FILE (B0000002)
                                                   vCAST_RUN_DATA_IF (B0000001)
                                                   vCAST_SET_FLOAT_FORMAT (B0000002)
                                                   vCAST_SET_HISTORY (B0000002)
                                                   vCAST_SET_HISTORY_FLAGS (B0000002)
                                                   vCAST_SET_OUTPUT_TO_EVENT_FILE (B0000002)
                                                   vCAST_SET_TESTCASE_CONFIGURATION_OPTIONS (B0000002)
                                                   vCAST_SET_TESTCASE_OPTIONS (B0000002)
                                                   vCAST_SHOULD_DISPLAY_GLOBALS (B0000002)
                                                   vCAST_STORE_ASCII_DATA (B0000002)
                                                   vCAST_STORE_GLOBAL_ASCII_DATA (B0000002)
                                                   vCAST_STORE_PARAMETER_ASCII_DATA (B0000002)
                                                   vCAST_STR_TO_LONG_DOUBLE (B0000002)
                                                   vCAST_STUB_PROCESSING_9 (I0000009)
                                                   vCAST_USER_CODE (B0000004)
                                                   vCAST_USER_CODE_CAPTURE (B0000004)
                                                   vCAST_USER_CODE_CAPTURE_GLOBALS (B0000004)
                                                   vCAST_USER_CODE_INITIALIZE (B0000004)
                                                   vCAST_VALUE_USER_CODE_8 (B0000008)
                                                   vCAST_VALUE_USER_CODE_9 (I0000009)
                                                   vCAST_WRITE_END_FILE (B0000002)
                                                   vCAST_isUUTorGlobal (B0000002)
                                                   vCAST_power (B0000002)
                                                   vCAST_slice (B0000002)
                                                   vcastInitializeB1Data (B0000001)
                                                   vcastInitializeB2Data (B0000002)
                                                   vcastInitializeS2Data (S0000003)
                                                   vcastSaveProfilingData (S0000003)
                                                   vcastStartProfiling (S0000003)
                                                   vcast_B1_switch (B1_switch)
                                                   vcast_B4_switch (B4_switch)
                                                   vcast_S3_switch (S3_switch)
                                                   vcast_add_to_hex (B0000001)
                                                   vcast_avl_max (B0000002)
                                                   vcast_char_to_based_string (B0000007)
                                                   vcast_check_for_dump_buffer (B0000007)
                                                   vcast_contains_unprintable (B0000001)
                                                   vcast_contains_unprintable_with_length (B0000001)
                                                   vcast_convert_size (B0000001)
                                                   vcast_doubleRotateWithLeft (B0000002)
                                                   vcast_doubleRotateWithRight (B0000002)
                                                   vcast_fatal_error (B0000002)
                                                   vcast_find (B0000002)
                                                   vcast_float_to_string (B0000007)
                                                   vcast_getAVLTree (B0000002)
                                                   vcast_get_filename (B0000007)
                                                   vcast_get_hc_id (B0000002)
                                                   vcast_get_internal_fileid (B0000007)
                                                   vcast_get_mcdc_statement (B0000002)
                                                   vcast_get_non_numerical_escape (B0000001)
                                                   vcast_get_param (B0000001)
                                                   vcast_get_param_value_with_index (B0000001)
                                                   vcast_get_parameter_id (B0000002)
                                                   vcast_get_parameter_id_str (B0000002)
                                                   vcast_get_percent_pos (B0000002)
                                                   vcast_get_position (B0000002)
                                                   vcast_get_range_value (B0000001)
                                                   vcast_get_subprogram_id (B0000002)
                                                   vcast_get_unit_id (B0000002)
                                                   vcast_get_unit_id_str (B0000002)
                                                   vcast_height (B0000002)
                                                   vcast_insert (B0000002)
                                                   vcast_int_to_string (B0000002)
                                                   vcast_mcdc_statement_compare (B0000002)
                                                   vcast_proc_handles_command (B0000001)
                                                   vcast_signed_to_string (B0000007)
                                                   vcast_singleRotateWithLeft (B0000002)
                                                   vcast_singleRotateWithRight (B0000002)
                                                   vcast_strcat (B0000002)
                                                   vcast_unconvert_char_hex (B0000001)
                                                   vcast_unconvert_char_oct (B0000001)
                                                   vcast_unconvert_string_hex (B0000001)
                                                   vcast_unconvert_string_hex_with_length (B0000001)
                                                   vcast_unconvert_string_oct (B0000001)
                                                   vcast_unconvert_string_oct_with_length (B0000001)
                                                   vcast_unsigned_to_string (B0000007)
                                                   vectorcast_fclose (B0000007)
                                                   vectorcast_feof (B0000007)
                                                   vectorcast_fflush (B0000007)
                                                   vectorcast_fgets (B0000007)
                                                   vectorcast_fopen (B0000007)
                                                   vectorcast_fprint_char (B0000007)
                                                   vectorcast_fprint_char_hex (B0000007)
                                                   vectorcast_fprint_char_octl (B0000007)
                                                   vectorcast_fprint_integer (B0000007)
                                                   vectorcast_fprint_long_float (B0000007)
                                                   vectorcast_fprint_long_long (B0000007)
                                                   vectorcast_fprint_string (B0000007)
                                                   vectorcast_fprint_string_with_cr (B0000007)
                                                   vectorcast_fprint_string_with_length (B0000007)
                                                   vectorcast_fprint_unsigned_integer (B0000007)
                                                   vectorcast_fprint_unsigned_long (B0000007)
                                                   vectorcast_fprint_unsigned_long_long (B0000007)
                                                   vectorcast_initialize_io (B0000007)
                                                   vectorcast_initialize_io_stdio (B0000007)
                                                   vectorcast_local_print_string (B0000007)
                                                   vectorcast_local_print_string_stdio (B0000007)
                                                   vectorcast_print_signed (B0000007)
                                                   vectorcast_print_string (B0000007)
                                                   vectorcast_print_unsigned (B0000007)
                                                   vectorcast_read_from_std_in (B0000007)
                                                   vectorcast_readline (B0000007)
                                                   vectorcast_terminate_io (B0000007)
                                                   vectorcast_write_to_std_out (B0000007)
                                                   vectorcast_write_vcast_end (B0000007)
  SEGMENTS IN THE MODULE
  ======================
__aseg
  Relative segment, address: 00000000, align: 0
  Segment part 1. ROOT 

    -------------------------------------------------------------------------
  LIBRARY MODULE, NAME : ?UCHAR_DIV_MOD_L01

  SEGMENTS IN THE MODULE
  ======================
__aseg
  Relative segment, address: 00000000, align: 0
  Segment part 1. ROOT 
    -------------------------------------------------------------------------
RCODE
  Relative segment, address: 000007A4 - 000007C9 (0x26 bytes), align: 0
  Segment part 2.
           ENTRY                   ADDRESS         REF BY
           =====                   =======         ======
           ?UC_DIV_L01             000007A4        Get_BCMVehType (I0000009)
           ?UC_MOD_L01             000007B2 

    -------------------------------------------------------------------------
  LIBRARY MODULE, NAME : ?UCHAR_DIVUW_L01

  SEGMENTS IN THE MODULE
  ======================
__aseg
  Relative segment, address: 00000000, align: 0
  Segment part 1. ROOT 
    -------------------------------------------------------------------------
RCODE
  Relative segment, address: 000007CA - 000007D9 (0x10 bytes), align: 0
  Segment part 2.
           ENTRY                   ADDRESS         REF BY
           =====                   =======         ======
           ?DIVUW_L01              000007CA        ?INT_DIV_MOD_L02 (?INT_DIV_MOD_L02)
                                                   Segment part 2 (?UCHAR_DIV_MOD_L01)

    -------------------------------------------------------------------------
  LIBRARY MODULE, NAME : ?INT_LSH_L02

  SEGMENTS IN THE MODULE
  ======================
__aseg
  Relative segment, address: 00000000, align: 0
  Segment part 1. ROOT 
    -------------------------------------------------------------------------
RCODE
  Relative segment, address: 000007DA - 000007E4 (0xb bytes), align: 0
  Segment part 2.
           ENTRY                   ADDRESS         REF BY
           =====                   =======         ======
           ?I_LSH_L02              000007DA        VCAST_DUMP_OPTIMIZED_MCDC_COVERAGE_DATA_ID (B0000002)
                                                   VCAST_OPTIMIZED_MCDC_CONDITION_INSTRUMENTATION_POINT_BUFFERED (B0000002)
                                                   VCAST_OPTIMIZED_MCDC_CONDITION_INSTRUMENTATION_POINT_BUFFERED_1 (B0000002)

    -------------------------------------------------------------------------
  LIBRARY MODULE, NAME : ?SINT_RSH_L02

  SEGMENTS IN THE MODULE
  ======================
__aseg
  Relative segment, address: 00000000, align: 0
  Segment part 1. ROOT 
    -------------------------------------------------------------------------
RCODE
  Relative segment, address: 000007E5 - 000007F0 (0xc bytes), align: 0
  Segment part 2.
           ENTRY                   ADDRESS         REF BY
           =====                   =======         ======
           ?SI_RSH_L02             000007E5        VCAST_DUMP_FN_CALL_COVERAGE_DATA_ID (B0000002)
                                                   VCAST_DUMP_OPTIMIZED_MCDC_COVERAGE_DATA_ID (B0000002)
                                                   VCAST_DUMP_STATEMENT_COVERAGE_DATA_ID (B0000002)
                                                   VCAST_OPTIMIZED_MCDC_CONDITION_INSTRUMENTATION_POINT_BUFFERED (B0000002)

    -------------------------------------------------------------------------
  LIBRARY MODULE, NAME : ?SINT_DIV_L02

  SEGMENTS IN THE MODULE
  ======================
__aseg
  Relative segment, address: 00000000, align: 0
  Segment part 1. ROOT 
    -------------------------------------------------------------------------
RCODE
  Relative segment, address: 000007F1 - 00000808 (0x18 bytes), align: 0
  Segment part 2.
           ENTRY                   ADDRESS         REF BY
           =====                   =======         ======
           ?SI_DIV_L02             000007F1        AdjustOutHudValue (I0000009)
                                                   GetLightTransmission (I0000009)

    -------------------------------------------------------------------------
  LIBRARY MODULE, NAME : ?SINT_MOD_L02

  SEGMENTS IN THE MODULE
  ======================
__aseg
  Relative segment, address: 00000000, align: 0
  Segment part 1. ROOT 
    -------------------------------------------------------------------------
RCODE
  Relative segment, address: 00000809 - 00000820 (0x18 bytes), align: 0
  Segment part 2.
           ENTRY                   ADDRESS         REF BY
           =====                   =======         ======
           ?SI_MOD_L02             00000809        AdjustOutHudValue (I0000009)
                                                   VCAST_DUMP_OPTIMIZED_MCDC_COVERAGE_DATA_ID (B0000002)
                                                   VCAST_OPTIMIZED_MCDC_CONDITION_INSTRUMENTATION_POINT_BUFFERED (B0000002)
                                                   VCAST_OPTIMIZED_MCDC_CONDITION_INSTRUMENTATION_POINT_BUFFERED_1 (B0000002)

    -------------------------------------------------------------------------
  LIBRARY MODULE, NAME : ?SINT_CMP_L02

  SEGMENTS IN THE MODULE
  ======================
__aseg
  Relative segment, address: 00000000, align: 0
  Segment part 1. ROOT 
    -------------------------------------------------------------------------
RCODE
  Relative segment, address: 00000821 - 0000082C (0xc bytes), align: 0
  Segment part 2.
           ENTRY                   ADDRESS         REF BY
           =====                   =======         ======
           ?SI_CMP_L02             00000821        GetFile (B0000007)
                                                   GetFileFromName (B0000007)
                                                   GetIdNumber (B0000007)
                                                   VCAST_DUMP_FN_CALL_COVERAGE_DATA_ID (B0000002)
                                                   VCAST_DUMP_MCDC_COVERAGE_DATA_ID (B0000002)
                                                   VCAST_DUMP_OPTIMIZED_MCDC_COVERAGE_DATA_ID (B0000002)
                                                   VCAST_DUMP_STATEMENT_COVERAGE_DATA_ID (B0000002)
                                                   VCAST_FIND_INDEX (B0000001)
                                                   VCAST_OPTIMIZED_MCDC_CONDITION_INSTRUMENTATION_POINT_BUFFERED (B0000002)
                                                   VCAST_TI_8_4 (B0000008)
                                                   VCAST_TI_8_5 (B0000008)
                                                   VCAST_TI_9_111 (I0000009)
                                                   VCAST_TI_9_31 (I0000009)
                                                   VCAST_TI_9_37 (I0000009)
                                                   VCAST_TI_9_41 (I0000009)
                                                   VCAST_TI_9_43 (I0000009)
                                                   VCAST_TI_9_45 (I0000009)
                                                   VCAST_TI_9_49 (I0000009)
                                                   VCAST_TI_9_50 (I0000009)
                                                   VCAST_TI_9_54 (I0000009)
                                                   VCAST_TI_9_63 (I0000009)
                                                   VCAST_TI_9_64 (I0000009)
                                                   VCAST_TI_9_65 (I0000009)
                                                   VCAST_TI_9_68 (I0000009)
                                                   VCAST_TI_9_72 (I0000009)
                                                   VCAST_TI_9_74 (I0000009)
                                                   VCAST_TI_9_77 (I0000009)
                                                   VCAST_TI_9_79 (I0000009)
                                                   VCAST_TI_9_8 (I0000009)
                                                   VCAST_TI_9_80 (I0000009)
                                                   VCAST_TI_9_81 (I0000009)
                                                   VCAST_TI_BITFIELD (B0000001)
                                                   VCAST_TI_STRING (B0000001)
                                                   VCAST_convert (B0000001)
                                                   _LitobSmall (?xprintfsmall)
                                                   main (S0000003)
                                                   orderHUDValue (I0000009)
                                                   pad (?xprintfsmall)
                                                   vCAST_ITERATION_COUNTER_RESET (B0000002)
                                                   vCAST_OPEN_E0_FILE (B0000002)
                                                   vCAST_RUN_DATA_IF (B0000001)
                                                   vCAST_SET_HISTORY_FLAGS (B0000002)
                                                   vCAST_STORE_PARAMETER_ASCII_DATA (B0000002)
                                                   vCAST_STR_TO_LONG_DOUBLE (B0000002)
                                                   vCAST_power (B0000002)
                                                   vCAST_slice (B0000002)
                                                   vcast_avl_max (B0000002)
                                                   vcast_contains_unprintable_with_length (B0000001)
                                                   vcast_convert_size (B0000001)
                                                   vcast_proc_handles_command (B0000001)
                                                   vcast_unconvert_string_hex (B0000001)
                                                   vcast_unconvert_string_hex_with_length (B0000001)
                                                   vcast_unconvert_string_oct (B0000001)
                                                   vcast_unconvert_string_oct_with_length (B0000001)
                                                   vectorcast_fprint_string_with_length (B0000007)
                                                   vectorcast_local_print_string_stdio (B0000007)

    -------------------------------------------------------------------------
  LIBRARY MODULE, NAME : ?INT_NEGATE_DIV_MOD_L02

  SEGMENTS IN THE MODULE
  ======================
__aseg
  Relative segment, address: 00000000, align: 0
  Segment part 1. ROOT 
    -------------------------------------------------------------------------
RCODE
  Relative segment, address: 0000082D - 00000844 (0x18 bytes), align: 0
  Segment part 2.
           ENTRY                   ADDRESS         REF BY
           =====                   =======         ======
           ?INT_NEGATE_DIV_MOD_L02
                                   0000082D        ?SI_DIV_L02 (?SINT_DIV_L02)
                                                   ?SI_MOD_L02 (?SINT_MOD_L02)

    -------------------------------------------------------------------------
  LIBRARY MODULE, NAME : ?INT_DIV_MOD_L02

  SEGMENTS IN THE MODULE
  ======================
__aseg
  Relative segment, address: 00000000, align: 0
  Segment part 1. ROOT 
    -------------------------------------------------------------------------
RCODE
  Relative segment, address: 00000845 - 00000879 (0x35 bytes), align: 0
  Segment part 2.
           ENTRY                   ADDRESS         REF BY
           =====                   =======         ======
           ?INT_DIV_MOD_L02        00000845        ?SI_DIV_L02 (?SINT_DIV_L02)
                                                   ?SI_MOD_L02 (?SINT_MOD_L02)

    -------------------------------------------------------------------------
  LIBRARY MODULE, NAME : ?LONG_LSH_L03

  SEGMENTS IN THE MODULE
  ======================
__aseg
  Relative segment, address: 00000000, align: 0
  Segment part 1. ROOT 
    -------------------------------------------------------------------------
RCODE
  Relative segment, address: 0000087A - 00000891 (0x18 bytes), align: 0
  Segment part 2.
           ENTRY                   ADDRESS         REF BY
           =====                   =======         ======
           ?L_LSH_L03              0000087A        VCAST_SAVE_MCDC_SUBCONDITION (B0000002)

    -------------------------------------------------------------------------
  LIBRARY MODULE, NAME : ?LONG_MUL_FAST_L03

  SEGMENTS IN THE MODULE
  ======================
__aseg
  Relative segment, address: 00000000, align: 0
  Segment part 1. ROOT 
    -------------------------------------------------------------------------
RCODE
  Relative segment, address: 00000892 - 000008B4 (0x23 bytes), align: 0
  Segment part 2.
           ENTRY                   ADDRESS         REF BY
           =====                   =======         ======
           ?L_MUL_FAST_L03         00000892        OutPutHudValue (I0000009)
                                                   VCAST_TI_BITFIELD (B0000001)
                                                   __iar_Stoulx (?xstoul)

    -------------------------------------------------------------------------
  LIBRARY MODULE, NAME : ?SLONG_DIV_L03

  SEGMENTS IN THE MODULE
  ======================
__aseg
  Relative segment, address: 00000000, align: 0
  Segment part 1. ROOT 
    -------------------------------------------------------------------------
RCODE
  Relative segment, address: 000008B5 - 000008EF (0x3b bytes), align: 0
  Segment part 2.
           ENTRY                   ADDRESS         REF BY
           =====                   =======         ======
           ?SL_DIV_L03             000008B5        VCAST_TI_BITFIELD (B0000001)

    -------------------------------------------------------------------------
  LIBRARY MODULE, NAME : ?SLONG_MOD_L03

  SEGMENTS IN THE MODULE
  ======================
__aseg
  Relative segment, address: 00000000, align: 0
  Segment part 1. ROOT 

    -------------------------------------------------------------------------
  LIBRARY MODULE, NAME : ?LONG_IOR_L03

  SEGMENTS IN THE MODULE
  ======================
__aseg
  Relative segment, address: 00000000, align: 0
  Segment part 1. ROOT 
    -------------------------------------------------------------------------
RCODE
  Relative segment, address: 000008F0 - 00000910 (0x21 bytes), align: 0
  Segment part 2.
           ENTRY                   ADDRESS         REF BY
           =====                   =======         ======
           ?L_IOR_L03              000008F0        VCAST_SAVE_MCDC_SUBCONDITION (B0000002)

    -------------------------------------------------------------------------
  LIBRARY MODULE, NAME : ?SLONG_CMP_L03

  SEGMENTS IN THE MODULE
  ======================
__aseg
  Relative segment, address: 00000000, align: 0
  Segment part 1. ROOT 
    -------------------------------------------------------------------------
RCODE
  Relative segment, address: 00000911 - 00000943 (0x33 bytes), align: 0
  Segment part 2.
           ENTRY                   ADDRESS         REF BY
           =====                   =======         ======
           ?SL_CMP_L03             00000911        _LitobSmall (?xprintfsmall)
                                                   _PrintfSmall (?xprintfsmall)

    -------------------------------------------------------------------------
  LIBRARY MODULE, NAME : ?ULONG_CMP_L03

  SEGMENTS IN THE MODULE
  ======================
__aseg
  Relative segment, address: 00000000, align: 0
  Segment part 1. ROOT 
    -------------------------------------------------------------------------
RCODE
  Relative segment, address: 00000944 - 00000960 (0x1d bytes), align: 0
  Segment part 2.
           ENTRY                   ADDRESS         REF BY
           =====                   =======         ======
           ?UL_CMP_L03             00000944        __iar_Stoulx (?xstoul)
                                                   vcast_mcdc_statement_compare (B0000002)

    -------------------------------------------------------------------------
  LIBRARY MODULE, NAME : ?LONG_NEG_L03

  SEGMENTS IN THE MODULE
  ======================
__aseg
  Relative segment, address: 00000000, align: 0
  Segment part 1. ROOT 
    -------------------------------------------------------------------------
RCODE
  Relative segment, address: 00000961 - 0000097F (0x1f bytes), align: 0
  Segment part 2.
           ENTRY                   ADDRESS         REF BY
           =====                   =======         ======
           ?L_NEG_L03              00000961        VCAST_TI_BITFIELD (B0000001)
                                                   _LitobSmall (?xprintfsmall)
                                                   __iar_Stoulx (?xstoul)

    -------------------------------------------------------------------------
  LIBRARY MODULE, NAME : ?LONG_LOAD_DIV_MOD_L03

  SEGMENTS IN THE MODULE
  ======================
__aseg
  Relative segment, address: 00000000, align: 0
  Segment part 1. ROOT 
    -------------------------------------------------------------------------
RCODE
  Relative segment, address: 00000980 - 0000098F (0x10 bytes), align: 0
  Segment part 2.
           ENTRY                   ADDRESS         REF BY
           =====                   =======         ======
           ?LONG_LOAD_DIV_MOD_L03
                                   00000980        ?SL_DIV_L03 (?SLONG_DIV_L03)

    -------------------------------------------------------------------------
  LIBRARY MODULE, NAME : ?LONG_NEGATE_DIV_MOD_L03

  SEGMENTS IN THE MODULE
  ======================
__aseg
  Relative segment, address: 00000000, align: 0
  Segment part 1. ROOT 
    -------------------------------------------------------------------------
RCODE
  Relative segment, address: 00000990 - 000009A6 (0x17 bytes), align: 0
  Segment part 2.
           ENTRY                   ADDRESS         REF BY
           =====                   =======         ======
           ?LONG_NEGATE_DIV_MOD_L03
                                   00000990        ?SL_DIV_L03 (?SLONG_DIV_L03)

    -------------------------------------------------------------------------
  LIBRARY MODULE, NAME : ?LONG_NEGATE2_DIV_MOD_L03

  SEGMENTS IN THE MODULE
  ======================
__aseg
  Relative segment, address: 00000000, align: 0
  Segment part 1. ROOT 
    -------------------------------------------------------------------------
RCODE
  Relative segment, address: 000009A7 - 000009BE (0x18 bytes), align: 0
  Segment part 2.
           ENTRY                   ADDRESS         REF BY
           =====                   =======         ======
           ?LONG_NEGATE2_DIV_MOD_L03
                                   000009A7        ?SL_DIV_L03 (?SLONG_DIV_L03)

    -------------------------------------------------------------------------
  LIBRARY MODULE, NAME : ?LONG_DIV_L03

  SEGMENTS IN THE MODULE
  ======================
__aseg
  Relative segment, address: 00000000, align: 0
  Segment part 1. ROOT 
    -------------------------------------------------------------------------
RCODE
  Relative segment, address: 000009BF - 00000A4B (0x8d bytes), align: 0
  Segment part 2.
           ENTRY                   ADDRESS         REF BY
           =====                   =======         ======
           ?LONG_DIV_L03           000009BF        ?SL_DIV_L03 (?SLONG_DIV_L03)

    -------------------------------------------------------------------------
  LIBRARY MODULE, NAME : ?LONG_MOD_L03

  SEGMENTS IN THE MODULE
  ======================
__aseg
  Relative segment, address: 00000000, align: 0
  Segment part 1. ROOT 

    -------------------------------------------------------------------------
  LIBRARY MODULE, NAME : ?FUNCTION_LEAVE_L06

  SEGMENTS IN THE MODULE
  ======================
__aseg
  Relative segment, address: 00000000, align: 0
  Segment part 1. ROOT 
    -------------------------------------------------------------------------
RCODE
  Relative segment, address: 00000A4C - 00000A73 (0x28 bytes), align: 0
  Segment part 2.
           ENTRY                   ADDRESS         REF BY
           =====                   =======         ======
           ?0EFUNC_LEAVE_L06       00000A73 
           ?0SFUNC_LEAVE_L06       00000A4C 
           ?1SFUNC_LEAVE_L06       00000A63 
           ?FUNC_LEAVE_L06         00000A4C        GetFiveTableValue_50ms (I0000009)
                                                   Segment part 7 (?xprintfsmall)
                                                   VCAST_DUMP_OPTIMIZED_MCDC_COVERAGE_DATA_ID (B0000002)
                                                   VCAST_MCDC_CONDITION_INSTRUMENTATION_POINT_BUFFERED (B0000002)
                                                   VCAST_OPTIMIZED_MCDC_CONDITION_INSTRUMENTATION_POINT_BUFFERED (B0000002)
                                                   VCAST_OPTIMIZED_MCDC_CONDITION_INSTRUMENTATION_POINT_BUFFERED_1 (B0000002)
                                                   VCAST_SAVE_MCDC_SUBCONDITION (B0000002)
                                                   VCAST_TI_STRING (B0000001)
                                                   VCAST_WRITE_MCDC_ID (B0000002)
                                                   VCAST_WRITE_OPTIMIZED_MCDC_ID (B0000002)
                                                   __iar_Stoulx (?xstoul)
                                                   vCAST_COMMON_STUB_PROC_9 (I0000009)
                                                   vCAST_READ_COMMAND_DATA (B0000002)
                                                   vCAST_SET_FLOAT_FORMAT (B0000002)
                                                   vCAST_SET_HISTORY_FLAGS (B0000002)
                                                   vCAST_slice (B0000002)
                                                   vcast_B1_switch (B1_switch)
                                                   vcast_S3_switch (S3_switch)
                                                   vcast_float_to_string (B0000007)
                                                   vcast_int_to_string (B0000002)
                                                   vcast_signed_to_string (B0000007)
                                                   vcast_unsigned_to_string (B0000007)
                                                   vectorcast_fprint_long_float (B0000007)
                                                   vectorcast_fprint_long_long (B0000007)
                                                   vectorcast_fprint_unsigned_long (B0000007)
                                                   vectorcast_fprint_unsigned_long_long (B0000007)
                                                   vectorcast_print_signed (B0000007)
                                                   vectorcast_print_unsigned (B0000007)

    -------------------------------------------------------------------------
  LIBRARY MODULE, NAME : ?MOVE_LONG_OBJECT_L06

  SEGMENTS IN THE MODULE
  ======================
__aseg
  Relative segment, address: 00000000, align: 0
  Segment part 1. ROOT 
    -------------------------------------------------------------------------
RCODE
  Relative segment, address: 00000A74 - 00000AA3 (0x30 bytes), align: 0
  Segment part 2.
           ENTRY                   ADDRESS         REF BY
           =====                   =======         ======
           ?0EMOVE_LONG_L06        00000AA3 
           ?0SMOVE_LONG_L06        00000A74 
           ?1SMOVE_LONG_L06        00000A84 
           ?2SMOVE_LONG_L06        00000A91 
           ?3SMOVE_LONG_L06        00000A95 
           ?4SMOVE_LONG_L06        00000AA1 
           ?MOVE_LONG_L06          00000A74        LoadInt (?xprintfsmall)

    -------------------------------------------------------------------------
  LIBRARY MODULE, NAME : ?STRCMP_NEAR

  SEGMENTS IN THE MODULE
  ======================
__aseg
  Relative segment, address: 00000000, align: 0
  Segment part 1. ROOT 
    -------------------------------------------------------------------------
RCODE
  Relative segment, address: 00000AA4 - 00000AB8 (0x15 bytes), align: 0
  Segment part 2.
           ENTRY                   ADDRESS         REF BY
           =====                   =======         ======
           ?STRCMP_NEAR            00000AA4        GetFileFromName (B0000007)
                                                   vCAST_RUN_DATA_IF (B0000001)
                                                   vcast_get_internal_fileid (B0000007)
                                                   vectorcast_fopen (B0000007)

    -------------------------------------------------------------------------
  LIBRARY MODULE, NAME : ?LONG_FLOAT_DEALLOC_L06

  SEGMENTS IN THE MODULE
  ======================
__aseg
  Relative segment, address: 00000000, align: 0
  Segment part 1. ROOT 
    -------------------------------------------------------------------------
RCODE
  Relative segment, address: 00000AB9 - 00000ABF (0x7 bytes), align: 0
  Segment part 2.
           ENTRY                   ADDRESS         REF BY
           =====                   =======         ======
           ?0SL_F_DEALLOC_L06      00000AB9 
           ?L_F_DEALLOC_L06        00000AB9        ?L_IOR_L03 (?LONG_IOR_L03)
                                                   ?SL_DIV_L03 (?SLONG_DIV_L03)
    -------------------------------------------------------------------------
RCODE
  Relative segment, address: 00000AC0 - 00000ACE (0xf bytes), align: 0
  Segment part 3.             Intra module refs:   Segment part 2
           ENTRY                   ADDRESS         REF BY
           =====                   =======         ======
           ?0EL_F_DEALLOC_L06      00000ACE 
           ?0EL_F_DEALLOC_STAT_L06
                                   00000ACE 
           ?0SL_F_DEALLOC_STAT_L06
                                   00000AC0 
           ?L_F_DEALLOC_STAT_L06   00000AC0        ?SL_CMP_L03 (?SLONG_CMP_L03)
                                                   ?UL_CMP_L03 (?ULONG_CMP_L03)

    -------------------------------------------------------------------------
  LIBRARY MODULE, NAME : ?setjmp

  SEGMENTS IN THE MODULE
  ======================
__aseg
  Relative segment, address: 00000000, align: 0
  Segment part 1. ROOT 
    -------------------------------------------------------------------------
CODE
  Relative segment, address: 00000BAB - 00000BBD (0x13 bytes), align: 0
  Segment part 2.
           ENTRY                   ADDRESS         REF BY
           =====                   =======         ======
           setjmp                  00000BAB        VCAST_TI_9_1 (I0000009)
                                                   VCAST_TI_9_10 (I0000009)
                                                   VCAST_TI_9_12 (I0000009)
                                                   VCAST_TI_9_14 (I0000009)
                                                   VCAST_TI_9_16 (I0000009)
                                                   VCAST_TI_9_18 (I0000009)
                                                   VCAST_TI_9_20 (I0000009)
                                                   VCAST_TI_9_23 (I0000009)
                                                   VCAST_TI_9_24 (I0000009)
                                                   VCAST_TI_9_26 (I0000009)
                                                   VCAST_TI_9_28 (I0000009)
                                                   VCAST_TI_9_30 (I0000009)
                                                   VCAST_TI_9_33 (I0000009)
                                                   VCAST_TI_9_35 (I0000009)
                                                   VCAST_TI_9_4 (I0000009)
                                                   VCAST_TI_9_40 (I0000009)
                                                   VCAST_TI_9_42 (I0000009)
                                                   VCAST_TI_9_44 (I0000009)
                                                   VCAST_TI_9_7 (I0000009)

    -------------------------------------------------------------------------
  LIBRARY MODULE, NAME : ?WRKSEG_DEFINE_L09

  SEGMENTS IN THE MODULE
  ======================
__aseg
  Relative segment, address: 00000000, align: 0
  Segment part 1. ROOT 
    -------------------------------------------------------------------------
WRKSEG
  Relative segment, address: 000FFE20, align: 1
  Segment part 2.             Intra module refs:   __WRKSEG_0
           ENTRY                   ADDRESS         REF BY
           =====                   =======         ======
           ?WRKSEG_START           000FFE20        ?F_DIV (?FLOAT_DIV)
                                                   ?F_MUL (?FLOAT_MUL)
                                                   Segment part 2 (?FLOAT_2_SIGNED_LONG)
                                                   Segment part 2 (?FLOAT_ADD_SUB)
    -------------------------------------------------------------------------
WRKSEG
  Relative segment, address: 000FFE20 - 000FFE20 (0x1 bytes), align: 0
  Segment part 3.             Intra module refs:   __WRKSEG_1
           ENTRY                   ADDRESS         REF BY
           =====                   =======         ======
           __WRKSEG_0              000FFE20 
    -------------------------------------------------------------------------
WRKSEG
  Relative segment, address: 000FFE21 - 000FFE21 (0x1 bytes), align: 0
  Segment part 4.             Intra module refs:   __WRKSEG_2
           ENTRY                   ADDRESS         REF BY
           =====                   =======         ======
           __WRKSEG_1              000FFE21        Segment part 2 (?FLOAT_2_SIGNED_LONG)
                                                   Segment part 2 (?FLOAT_ADD_SUB)
    -------------------------------------------------------------------------
WRKSEG
  Relative segment, address: 000FFE22 - 000FFE22 (0x1 bytes), align: 0
  Segment part 5.             Intra module refs:   __WRKSEG_3
           ENTRY                   ADDRESS         REF BY
           =====                   =======         ======
           __WRKSEG_2              000FFE22 
    -------------------------------------------------------------------------
WRKSEG
  Relative segment, address: 000FFE23 - 000FFE23 (0x1 bytes), align: 0
  Segment part 6.
           ENTRY                   ADDRESS         REF BY
           =====                   =======         ======
           __WRKSEG_3              000FFE23        ?F_DIV (?FLOAT_DIV)
                                                   ?F_MUL (?FLOAT_MUL)

    -------------------------------------------------------------------------
  LIBRARY MODULE, NAME : ?INT_SSWITCH_L10

  SEGMENTS IN THE MODULE
  ======================
__aseg
  Relative segment, address: 00000000, align: 0
  Segment part 1. ROOT 
    -------------------------------------------------------------------------
RCODE
  Relative segment, address: 00000ACF - 00000AEF (0x21 bytes), align: 0
  Segment part 2.
           ENTRY                   ADDRESS         REF BY
           =====                   =======         ======
           ?0EI_SSWITCH_L10        00000AEE 
           ?0SI_SSWITCH_L10        00000ACF 
           ?1EI_SSWITCH_L10        00000AF0 
           ?1SI_SSWITCH_L10        00000AE0 
           ?2SI_SSWITCH_L10        00000AE7 
           ?I_SSWITCH_L10          00000ACF        VCAST_DRIVER_9 (I0000009)
                                                   VCAST_RUN_DATA_IF_8 (B0000008)
                                                   VCAST_RUN_DATA_IF_9 (I0000009)
                                                   VCAST_TI_9_11 (I0000009)
                                                   VCAST_TI_9_13 (I0000009)
                                                   VCAST_TI_9_15 (I0000009)
                                                   VCAST_TI_9_17 (I0000009)
                                                   VCAST_TI_9_2 (I0000009)
                                                   VCAST_TI_9_21 (I0000009)
                                                   VCAST_TI_9_25 (I0000009)
                                                   VCAST_TI_9_27 (I0000009)
                                                   VCAST_TI_9_29 (I0000009)
                                                   VCAST_TI_9_32 (I0000009)
                                                   VCAST_TI_9_34 (I0000009)
                                                   VCAST_TI_9_36 (I0000009)
                                                   VCAST_TI_9_5 (I0000009)
                                                   VCAST_TI_9_57 (I0000009)
                                                   VCAST_TI_9_59 (I0000009)
                                                   VCAST_TI_9_70 (I0000009)
                                                   VCAST_TI_9_9 (I0000009)
                                                   vCAST_SET_TESTCASE_CONFIGURATION_OPTIONS (B0000002)
                                                   vcast_B1_switch (B1_switch)

    -------------------------------------------------------------------------
  LIBRARY MODULE, NAME : ?MEMCPY_NEAR

  SEGMENTS IN THE MODULE
  ======================
__aseg
  Relative segment, address: 00000000, align: 0
  Segment part 1. ROOT 
    -------------------------------------------------------------------------
RCODE
  Relative segment, address: 00000AF0 - 00000AF9 (0xa bytes), align: 0
  Segment part 2.
           ENTRY                   ADDRESS         REF BY
           =====                   =======         ======
           ?MEMCPY_NEAR            00000AF6        VCAST_memcpy (B0000002)

    -------------------------------------------------------------------------
  LIBRARY MODULE, NAME : ?STR_CPY_NEAR

  SEGMENTS IN THE MODULE
  ======================
__aseg
  Relative segment, address: 00000000, align: 0
  Segment part 1. ROOT 
    -------------------------------------------------------------------------
RCODE
  Relative segment, address: 00000AFA - 00000B03 (0xa bytes), align: 0
  Segment part 2.
           ENTRY                   ADDRESS         REF BY
           =====                   =======         ======
           ?STR_CPY_NEAR           00000AFA        VCAST_READ_TESTORDR_LINE (B0000002)
                                                   main (S0000003)
                                                   vCAST_OPEN_E0_FILE (B0000002)
                                                   vCAST_READ_COMMAND_DATA (B0000002)
                                                   vCAST_READ_COMMAND_DATA_FOR_ONE_PARAM (B0000002)
                                                   vCAST_READ_COMMAND_DATA_FOR_USER_GLOBALS (B0000002)
                                                   vCAST_RUN_DATA_IF (B0000001)
                                                   vCAST_SET_FLOAT_FORMAT (B0000002)
                                                   vectorcast_local_print_string_stdio (B0000007)

    -------------------------------------------------------------------------
  LIBRARY MODULE, NAME : ?CAST_LLU2L

  SEGMENTS IN THE MODULE
  ======================
__aseg
  Relative segment, address: 00000000, align: 0
  Segment part 1. ROOT 
    -------------------------------------------------------------------------
RCODE
  Relative segment, address: 00000B04 - 00000B09 (0x6 bytes), align: 0
  Segment part 2.
           ENTRY                   ADDRESS         REF BY
           =====                   =======         ======
           _LLS2L                  00000B04        _PrintfSmall (?xprintfsmall)
           _LLU2L                  00000B04        _PrintfSmall (?xprintfsmall)

    -------------------------------------------------------------------------
  LIBRARY MODULE, NAME : ?LL_CASTU

  SEGMENTS IN THE MODULE
  ======================
__aseg
  Relative segment, address: 00000000, align: 0
  Segment part 1. ROOT 
    -------------------------------------------------------------------------
RCODE
  Relative segment, address: 00000B0A - 00000B15 (0xc bytes), align: 0
  Segment part 2.
           ENTRY                   ADDRESS         REF BY
           =====                   =======         ======
           _L2LLU                  00000B0A        LoadInt (?xprintfsmall)

    -------------------------------------------------------------------------
  LIBRARY MODULE, NAME : ?LL_CASTS

  SEGMENTS IN THE MODULE
  ======================
__aseg
  Relative segment, address: 00000000, align: 0
  Segment part 1. ROOT 
    -------------------------------------------------------------------------
RCODE
  Relative segment, address: 00000B16 - 00000B23 (0xe bytes), align: 0
  Segment part 2.
           ENTRY                   ADDRESS         REF BY
           =====                   =======         ======
           _L2LLS                  00000B16        LoadInt (?xprintfsmall)
    -------------------------------------------------------------------------
RCODE
  Relative segment, address: 00000B24 - 00000B2E (0xb bytes), align: 0
  Segment part 3.             Intra module refs:   _L2LLS
           ENTRY                   ADDRESS         REF BY
           =====                   =======         ======
           ?L2LL_RET               00000B24        _L2LLU (?LL_CASTU)

    -------------------------------------------------------------------------
  LIBRARY MODULE, NAME : ?memchr

  SEGMENTS IN THE MODULE
  ======================
<XCODE> 2 (was XCODE)
  Relative segment, address: 0000F33C - 0000F350 (0x15 bytes), align: 0
  Segment part 3.
           ENTRY                   ADDRESS         REF BY
           =====                   =======         ======
           __iar_Memchr            0000F33C        _PrintfSmall (?xprintfsmall)
                                                   __iar_Stoulx (?xstoul)

    -------------------------------------------------------------------------
  LIBRARY MODULE, NAME : ?memset

  SEGMENTS IN THE MODULE
  ======================
<XCODE> 2 (was XCODE)
  Relative segment, address: 0000F366 - 0000F37A (0x15 bytes), align: 0
  Segment part 2.
           ENTRY                   ADDRESS         REF BY
           =====                   =======         ======
           memset                  0000F366        VCAST_TI_9_53 (I0000009)
                                                   VCAST_convert (B0000001)
                                                   vCAST_EXTRACT_DATA_FROM_COMMAND_LINE (B0000002)
                                                   vCAST_RUN_DATA_IF (B0000001)
                                                   vcast_unconvert_string_hex (B0000001)
                                                   vcast_unconvert_string_hex_with_length (B0000001)
                                                   vcast_unconvert_string_oct (B0000001)
                                                   vcast_unconvert_string_oct_with_length (B0000001)
                                                   vectorcast_initialize_io_stdio (B0000007)
                                                   vectorcast_local_print_string_stdio (B0000007)
                                                   vectorcast_readline (B0000007)

    -------------------------------------------------------------------------
  LIBRARY MODULE, NAME : ?printf

  SEGMENTS IN THE MODULE
  ======================
<XCODE> 2 (was XCODE)
  Relative segment, address: 0000F286 - 0000F2A8 (0x23 bytes), align: 0
  Segment part 2.
           ENTRY                   ADDRESS         REF BY
           =====                   =======         ======
           printf                  0000F286        vectorcast_write_to_std_out (B0000007)
               calls direct
               CSTACK = 00000000 ( 0000000A )

    -------------------------------------------------------------------------
  LIBRARY MODULE, NAME : ?putchar

  SEGMENTS IN THE MODULE
  ======================
<XCODE> 2 (was XCODE)
  Relative segment, address: 0000F2A9 - 0000F2C9 (0x21 bytes), align: 0
  Segment part 2.
           ENTRY                   ADDRESS         REF BY
           =====                   =======         ======
           putchar                 0000F2A9        _Prout (?xprout)
               calls direct
               CSTACK = 00000000 ( 00000008 )

    -------------------------------------------------------------------------
  LIBRARY MODULE, NAME : ?sprintf

  SEGMENTS IN THE MODULE
  ======================
<XCODE> 1 (was XCODE)
  Relative segment, address: 00002FC3 - 00002FFD (0x3b bytes), align: 0
  Segment part 2.
           ENTRY                   ADDRESS         REF BY
           =====                   =======         ======
           sprintf                 00002FC3        vcast_char_to_based_string (B0000007)
                                                   vcast_float_to_string (B0000007)
                                                   vcast_signed_to_string (B0000007)
                                                   vcast_unsigned_to_string (B0000007)
               calls direct
               CSTACK = 00000000 ( 0000000C )

    -------------------------------------------------------------------------
  LIBRARY MODULE, NAME : ?strcat

  SEGMENTS IN THE MODULE
  ======================
<XCODE> 2 (was XCODE)
  Relative segment, address: 0000F307 - 0000F321 (0x1b bytes), align: 0
  Segment part 2.
           ENTRY                   ADDRESS         REF BY
           =====                   =======         ======
           strcat                  0000F307        vCAST_EXTRACT_DATA_FROM_COMMAND_LINE (B0000002)
                                                   vCAST_SET_FLOAT_FORMAT (B0000002)
                                                   vcast_unconvert_string_hex (B0000001)
                                                   vcast_unconvert_string_hex_with_length (B0000001)
                                                   vcast_unconvert_string_oct (B0000001)
                                                   vcast_unconvert_string_oct_with_length (B0000001)
                                                   vectorcast_local_print_string_stdio (B0000007)
               CSTACK = 00000000 ( 00000004 )

    -------------------------------------------------------------------------
  LIBRARY MODULE, NAME : ?strchr

  SEGMENTS IN THE MODULE
  ======================
<XCODE> 2 (was XCODE)
  Relative segment, address: 0000F38C - 0000F39B (0x10 bytes), align: 0
  Segment part 3.
           ENTRY                   ADDRESS         REF BY
           =====                   =======         ======
           __iar_Strchr            0000F38C        _PrintfSmall (?xprintfsmall)

    -------------------------------------------------------------------------
  LIBRARY MODULE, NAME : ?strlen

  SEGMENTS IN THE MODULE
  ======================
<XCODE> 2 (was XCODE)
  Relative segment, address: 0000F3AC - 0000F3B9 (0xe bytes), align: 0
  Segment part 2.
           ENTRY                   ADDRESS         REF BY
           =====                   =======         ======
           strlen                  0000F3AC        StripReturn (B0000007)
                                                   VCAST_READ_TESTORDR_LINE (B0000002)
                                                   VCAST_convert (B0000001)
                                                   _PrintfSmall (?xprintfsmall)
                                                   vCAST_EXTRACT_DATA_FROM_COMMAND_LINE (B0000002)
                                                   vCAST_OPEN_E0_FILE (B0000002)
                                                   vCAST_OPEN_HARNOPTS_FILE (B0000002)
                                                   vCAST_OPEN_TESTORDR_FILE (B0000002)
                                                   vCAST_READ_COMMAND_DATA (B0000002)
                                                   vCAST_READ_COMMAND_DATA_FOR_ONE_PARAM (B0000002)
                                                   vCAST_READ_COMMAND_DATA_FOR_USER_GLOBALS (B0000002)
                                                   vCAST_RUN_DATA_IF (B0000001)
                                                   vCAST_SET_TESTCASE_OPTIONS (B0000002)
                                                   vCAST_STORE_GLOBAL_ASCII_DATA (B0000002)
                                                   vCAST_STORE_PARAMETER_ASCII_DATA (B0000002)
                                                   vCAST_STR_TO_LONG_DOUBLE (B0000002)
                                                   vCAST_isUUTorGlobal (B0000002)
                                                   vCAST_slice (B0000002)
                                                   vcast_convert_size (B0000001)
                                                   vcast_unconvert_string_hex (B0000001)
                                                   vcast_unconvert_string_oct (B0000001)
                                                   vectorcast_initialize_io_stdio (B0000007)
                                                   vectorcast_local_print_string_stdio (B0000007)
                                                   vectorcast_readline (B0000007)
               CSTACK = 00000000 ( 00000002 )

    -------------------------------------------------------------------------
  LIBRARY MODULE, NAME : ?strncmp

  SEGMENTS IN THE MODULE
  ======================
<XCODE> 2 (was XCODE)
  Relative segment, address: 0000F22C - 0000F25E (0x33 bytes), align: 0
  Segment part 2.
           ENTRY                   ADDRESS         REF BY
           =====                   =======         ======
           strncmp                 0000F22C        EndOfInput (B0000007)
                                                   StartsNewFile (B0000007)
                                                   vCAST_RUN_DATA_IF (B0000001)
               CSTACK = 00000000 ( 00000004 )

    -------------------------------------------------------------------------
  LIBRARY MODULE, NAME : ?strncpy

  SEGMENTS IN THE MODULE
  ======================
<XCODE> 2 (was XCODE)
  Relative segment, address: 0000F25F - 0000F285 (0x27 bytes), align: 0
  Segment part 2.
           ENTRY                   ADDRESS         REF BY
           =====                   =======         ======
           strncpy                 0000F25F        VCAST_strncpy (B0000002)
               CSTACK = 00000000 ( 00000002 )

    -------------------------------------------------------------------------
  LIBRARY MODULE, NAME : ?strtoul

  SEGMENTS IN THE MODULE
  ======================
<XCODE> 2 (was XCODE)
  Relative segment, address: 0000F3D1 - 0000F3D8 (0x8 bytes), align: 0
  Segment part 2.
           ENTRY                   ADDRESS         REF BY
           =====                   =======         ======
           strtoul                 0000F3D1        vCAST_RUN_DATA_IF (B0000001)
               calls direct
               CSTACK = 00000000 ( 00000002 )

    -------------------------------------------------------------------------
  LIBRARY MODULE, NAME : ?xgetmemchunk

  SEGMENTS IN THE MODULE
  ======================
<XCODE> 2 (was XCODE)
  Relative segment, address: 0000F2E9 - 0000F306 (0x1e bytes), align: 0
  Segment part 5.
           ENTRY                   ADDRESS         REF BY
           =====                   =======         ======
           __near_GetMemChunk      0000F2E9        __near_findmem (?xxmemxmalloc)
    -------------------------------------------------------------------------
NEAR_Z
  Relative segment, address: 000FB660 - 000FB661 (0x2 bytes), align: 1
  Segment part 2.             Intra module refs:   __near_GetMemChunk
    -------------------------------------------------------------------------
NEAR_HEAP
  Relative segment, address: 000FB7F0, align: 1
  Segment part 10.

    -------------------------------------------------------------------------
  LIBRARY MODULE, NAME : ?xprintfsmall

  SEGMENTS IN THE MODULE
  ======================
<XCODE> 1 (was XCODE)
  Relative segment, address: 00002700 - 00002B5A (0x45b bytes), align: 0
  Segment part 4.
           ENTRY                   ADDRESS         REF BY
           =====                   =======         ======
           _PrintfSmall            00002700        printf (?printf)
                                                   sprintf (?sprintf)
               calls direct
               CSTACK = 00000004 ( 00000044 )
    -------------------------------------------------------------------------
<XCODE> 1 (was XCODE)
  Relative segment, address: 00002B5B - 00002B60 (0x6 bytes), align: 0
  Segment part 5.             Intra module refs:   _PrintfSmall
    -------------------------------------------------------------------------
<XCODE> 1 (was XCODE)
  Relative segment, address: 00002B61 - 00002B61 (0x1 bytes), align: 0
  Segment part 6.             Intra module refs:   _PutcharSmall
                                                   pad
    -------------------------------------------------------------------------
<XCODE> 1 (was XCODE)
  Relative segment, address: 00002B62 - 00002B66 (0x5 bytes), align: 0
  Segment part 7.             Intra module refs:   Segment part 6
                                                   _PrintfSmall
                                                   _PutcharsSmall
    -------------------------------------------------------------------------
<XCODE> 1 (was XCODE)
  Relative segment, address: 00002B67 - 00002BDB (0x75 bytes), align: 0
  Segment part 8.             Intra module refs:   _PrintfSmall
           LOCAL                   ADDRESS         
           =====                   =======         
           LoadInt                 00002B67 
               calls direct
               CSTACK = 00000000 ( 00000010 )
    -------------------------------------------------------------------------
<XCODE> 1 (was XCODE)
  Relative segment, address: 00002BDC - 00002C16 (0x3b bytes), align: 0
  Segment part 9.             Intra module refs:   _PrintfSmall
           LOCAL                   ADDRESS         
           =====                   =======         
           pad                     00002BDC 
               calls direct
               CSTACK = 00000004 ( 0000000E )
    -------------------------------------------------------------------------
<XCODE> 1 (was XCODE)
  Relative segment, address: 00002C17 - 00002D9A (0x184 bytes), align: 0
  Segment part 10.            Intra module refs:   _PrintfSmall
           LOCAL                   ADDRESS         
           =====                   =======         
           _LitobSmall             00002C17 
               CSTACK = 00000000 ( 0000001A )
    -------------------------------------------------------------------------
<XCODE> 1 (was XCODE)
  Relative segment, address: 00002D9B - 00002DBE (0x24 bytes), align: 0
  Segment part 11.            Intra module refs:   _PrintfSmall
                                                   _PutcharsSmall
           LOCAL                   ADDRESS         
           =====                   =======         
           _PutcharSmall           00002D9B 
               calls indirect
               CSTACK = 00000004 ( 00000004 )
    -------------------------------------------------------------------------
<XCODE> 1 (was XCODE)
  Relative segment, address: 00002DBF - 00002DED (0x2f bytes), align: 0
  Segment part 12.            Intra module refs:   _PrintfSmall
                                                   pad
           LOCAL                   ADDRESS         
           =====                   =======         
           _PutcharsSmall          00002DBF 
               calls direct
               CSTACK = 00000004 ( 00000008 )
    -------------------------------------------------------------------------
NEAR_ID
  Relative segment, address: 00000BDE - 00000BE3 (0x6 bytes), align: 1
  Segment part 3.             Intra module refs:   Segment part 2
    -------------------------------------------------------------------------
NEAR_I
  Relative segment, address: 000FAF20 - 000FAF25 (0x6 bytes), align: 1
  Segment part 2.             Intra module refs:   _PrintfSmall

    -------------------------------------------------------------------------
  LIBRARY MODULE, NAME : ?xprout

  SEGMENTS IN THE MODULE
  ======================
<XCODE> 2 (was XCODE)
  Relative segment, address: 0000F351 - 0000F365 (0x15 bytes), align: 0
  Segment part 2.
           ENTRY                   ADDRESS         REF BY
           =====                   =======         ======
           _Prout                  0000F351        printf (?printf)
               calls direct
               CSTACK = 00000000 ( 00000004 )

    -------------------------------------------------------------------------
  LIBRARY MODULE, NAME : ?xsprout

  SEGMENTS IN THE MODULE
  ======================
<XCODE> 2 (was XCODE)
  Relative segment, address: 0000F3BA - 0000F3C5 (0xc bytes), align: 0
  Segment part 2.
           ENTRY                   ADDRESS         REF BY
           =====                   =======         ======
           _SProut                 0000F3BA        sprintf (?sprintf)
               CSTACK = 00000000 ( 00000002 )

    -------------------------------------------------------------------------
  LIBRARY MODULE, NAME : ?xstoul

  SEGMENTS IN THE MODULE
  ======================
NEAR_I
  Relative segment, address: 000FAF26 - 000FAF4B (0x26 bytes), align: 1
  Segment part 2.             Intra module refs:   __iar_Stoulx
    -------------------------------------------------------------------------
NEAR_I
  Relative segment, address: 000FAF4C - 000FAF71 (0x26 bytes), align: 1
  Segment part 4.             Intra module refs:   __iar_Stoulx
    -------------------------------------------------------------------------
<XCODE> 1 (was XCODE)
  Relative segment, address: 00002DEE - 00002FB6 (0x1c9 bytes), align: 0
  Segment part 6.             Intra module refs:   __iar_Stoul
           ENTRY                   ADDRESS         REF BY
           =====                   =======         ======
           __iar_Stoulx            00002DEE 
               calls direct
               CSTACK = 00000002 ( 0000001E )
    -------------------------------------------------------------------------
<XCODE> 1 (was XCODE)
  Relative segment, address: 00002FB7 - 00002FC2 (0xc bytes), align: 0
  Segment part 7.
           ENTRY                   ADDRESS         REF BY
           =====                   =======         ======
           __iar_Stoul             00002FB7        atol (?atol)
                                                   strtoul (?strtoul)
               calls direct
               CSTACK = 00000000 ( 00000004 )
    -------------------------------------------------------------------------
NEAR_ID
  Relative segment, address: 00000BE4 - 00000C09 (0x26 bytes), align: 1
  Segment part 3.             Intra module refs:   Segment part 2
    -------------------------------------------------------------------------
NEAR_ID
  Relative segment, address: 00000C0A - 00000C2F (0x26 bytes), align: 1
  Segment part 5.             Intra module refs:   Segment part 4

    -------------------------------------------------------------------------
  LIBRARY MODULE, NAME : ?xxmemxfree

  SEGMENTS IN THE MODULE
  ======================
<XCODE> 2 (was XCODE)
  Relative segment, address: 0000F0D4 - 0000F18B (0xb8 bytes), align: 0
  Segment part 2.
           ENTRY                   ADDRESS         REF BY
           =====                   =======         ======
           __near_free             0000F0D4        __near_findmem (?xxmemxmalloc)
                                                   free (B0000007)
               CSTACK = 00000000 ( 0000000A )

    -------------------------------------------------------------------------
  LIBRARY MODULE, NAME : ?xxmemxmalloc

  SEGMENTS IN THE MODULE
  ======================
NEAR_Z
  Relative segment, address: 000FB662 - 000FB665 (0x4 bytes), align: 1
  Segment part 2.             Intra module refs:   __near_findmem
                                                   __near_malloc
           ENTRY                   ADDRESS         REF BY
           =====                   =======         ======
           __near_Aldata           000FB662        __near_free (?xxmemxfree)
    -------------------------------------------------------------------------
<XCODE> 2 (was XCODE)
  Relative segment, address: 0000EFEC - 0000F050 (0x65 bytes), align: 0
  Segment part 5.             Intra module refs:   __near_malloc
           LOCAL                   ADDRESS         
           =====                   =======         
           __near_findmem          0000EFEC 
               calls direct
               CSTACK = 00000000 ( 00000006 )
    -------------------------------------------------------------------------
<XCODE> 2 (was XCODE)
  Relative segment, address: 0000F051 - 0000F0D3 (0x83 bytes), align: 0
  Segment part 16.
           ENTRY                   ADDRESS         REF BY
           =====                   =======         ======
           __near_malloc           0000F051        malloc (B0000002)
               calls direct
               CSTACK = 00000000 ( 00000008 )

    *************************************************************************

  DEFINED ABSOLUTE ENTRIES
  PROGRAM MODULE, NAME : ?FILLER_BYTES

  SEGMENTS IN THE MODULE
  ======================
INTVEC
  Common segment, address: 00000000 - 00000001 (0x2 bytes), align: 0
  Segment part 5.
    -------------------------------------------------------------------------
?FILL5
  Relative segment, address: 00011F75 - 0003FDFF (0x2de8b bytes), align: 0
  Segment part 4.
    -------------------------------------------------------------------------
?FILL4
  Relative segment, address: 0000F3E4 - 0000FFFF (0xc1c bytes), align: 0
  Segment part 3.
    -------------------------------------------------------------------------
?FILL3
  Relative segment, address: 00002FFE - 00002FFF (0x2 bytes), align: 0
  Segment part 2.
    -------------------------------------------------------------------------
?FILL2
  Relative segment, address: 00000082 - 000000BF (0x3e bytes), align: 0
  Segment part 1.
    -------------------------------------------------------------------------
?FILL1
  Relative segment, address: 00000002 - 0000007F (0x7e bytes), align: 0
  Segment part 0.




                ****************************************
                *                                      *
                *            MODULE SUMMARY            *
                *                                      *
                ****************************************

Module                       CODE      DATA         CONST
------                       ----      ----         -----
                            (Rel)   (Rel)  (Abs)    (Rel)
?CAST_LLU2L                     6
?CSTARTUP                      49
  + common                      2
?FCMP_LT                       77
?FILLER_BYTES               3 290                 188 043
  + common                      2
?FLOAT_2_SIGNED_LONG          107
?FLOAT_ADD_SUB                604
?FLOAT_DIV                    376
?FLOAT_MUL                    341
?FUNCTION_LEAVE_L06            40
?INT_DIV_MOD_L02               53
?INT_LSH_L02                   11
?INT_NEGATE_DIV_MOD_L02        24
?INT_SSWITCH_L10               33
?LL_CASTS                      25
?LL_CASTU                      12
?LONG_DIV_L03                 141
?LONG_FLOAT_DEALLOC_L06        22
?LONG_IOR_L03                  33
?LONG_LOAD_DIV_MOD_L03         16
?LONG_LSH_L03                  24
?LONG_MUL_FAST_L03             35
?LONG_NEGATE2_DIV_MOD_L03      24
?LONG_NEGATE_DIV_MOD_L03       23
?LONG_NEG_L03                  31
?MEMCPY_NEAR                   10
?MOVE_LONG_OBJECT_L06          48
?SIGNED_LONG_2_FLOAT          105
?SINT_CMP_L02                  12
?SINT_DIV_L02                  24
?SINT_MOD_L02                  24
?SINT_RSH_L02                  12
?SLONG_CMP_L03                 51
?SLONG_DIV_L03                 59
?STRCMP_NEAR                   21
?STR_CPY_NEAR                  10
?SUBN_ARG                      11
?UCHAR_DIVUW_L01               16
?UCHAR_DIV_MOD_L01             38
?ULONG_CMP_L03                 29
?WRKSEG_DEFINE_L09                      4
?__INIT_NEAR_I                 26
?__INIT_NEAR_Z                 19
?__INIT_WRKSEG                 11
?__MAIN_CALL                    8
?__dbg_break                    3
?__dwrite                      26
?__exit                        17
?__low_level_init_stub          4
?__write                       16
?_exit                          6
?atol                          11
?errno                                  2
?exit                           4
?memchr                        21
?memset                        21
?printf                        35
?putchar                       33
?setjmp                        19
?sprintf                       59
?strcat                        27
?strchr                        16
?strlen                        14
?strncmp                       51
?strncpy                       39
?strtoul                        8
?xgetmemchunk                  30       2
?xprintfsmall               1 774       6               6
?xprout                        21
?xsprout                       12
?xstoul                       469      76              76
?xxmemxfree                   184
?xxmemxmalloc                 232       4
B0000001                    3 177     436             143
B0000002                    8 053     652             342
B0000004                       98       2               2
B0000007                    2 305     313             176
B0000008                    1 386     126             118
B1_switch                   1 047                     176
B4_switch                      62
I0000009                   44 123   1 565      2    1 968
S0000003                      806     831             217
S3_switch                      31
vcast_stdin_data                      168             168
N/A (command line)                  2 048
N/A (alignment)                    -1 896
----------                 ------   -----      -  -------
Total:                     70 171   4 339      2  191 435
  + common                      2


                ****************************************
                *                                      *
                *      SEGMENTS IN ADDRESS ORDER       *
                *                                      *
                ****************************************


SEGMENT              SPACE    START ADDRESS   END ADDRESS     SIZE  TYPE  ALIGN
=======              =====    =============   ===========     ====  ====  =====
__aseg                                  00000000                     rel    0
INTVEC                             00000000 - 00000001           2   com    1
?FILL1                             00000002 - 0000007F          7E   rel    0
CLTVEC                             00000080 - 00000081           2   rel    1
?FILL2                             00000082 - 000000BF          3E   rel    0
RCODE                              000000D8 - 00000B2E         A57   rel    0
CODE                               00000B2F - 00000BBD          8F   rel    0
NEAR_ID                            00000BBE - 00000C33          76   rel    1
<FSWITCH> 1                        00000C34 - 00001195         562   rel    1
<XCODE> 1                          00001196 - 00002FFD        1E68   rel    0
?FILL3                             00002FFE - 00002FFF           2   rel    0
NEAR_CONST_ID                      00003000 - 00003767         768   rel    1
<XCODE> 2                          00003768 - 0000F3E3        BC7C   rel    0
?FILL4                             0000F3E4 - 0000FFFF         C1C   rel    0
<XCODE> 3                          00010000 - 00011F74        1F75   rel    0
?FILL5                             00011F75 - 0003FDFF       2DE8B   rel    0
NEAR_CONST                         000F3000 - 000F3767         768   rel    1
NEAR_I                             000FAF00 - 000FAF75          76   rel    1
NEAR_Z                             000FAF76 - 000FB7EE         879   rel    1
FAR_Z                                   000FB7EF                     rel    0
HUGE_Z                                  000FB7EF                     rel    0
NEAR_HEAP                          000FB7F0 - 000FBBEF         400   rel    1
CSTACK                             000FBBF0 - 000FBFEF         400   rel    1
WRKSEG                             000FFE20 - 000FFE23           4   rel    1
NEAR_A                             000FFFD4 - 000FFFD5           2   rel    0

                ****************************************
                *                                      *
                *        END OF CROSS REFERENCE        *
                *                                      *
                ****************************************

 66 883 bytes of CODE  memory (+              3 290 range fill )
  4 339 bytes of DATA  memory (+ 2 absolute )
  3 392 bytes of CONST memory (+            188 043 range fill )

Errors: none
Warnings: none

